; Listing generated by Microsoft (R) Optimizing Compiler Version 19.23.28105.4 

	TITLE	C:\Users\lfish\Projects\WinViaCppStudy\22-LastMsgBoxInfo\22-LastMsgBoxInfo\Debug\rcc\qrc_LastMsgBoxInfo.cpp
	.686P
	.XMM
	include listing.inc
	.model	flat

INCLUDELIB MSVCRTD
INCLUDELIB OLDNAMES

CONST	SEGMENT
?qt_resource_data@@3QBEB DB 00H				; qt_resource_data
	DB	00H
	DB	08H
	DB	0beH
	DB	00H
	DB	00H
	DB	01H
	DB	00H
	DB	01H
	DB	00H
	DB	020H
	DB	020H
	DB	00H
	DB	00H
	DB	00H
	DB	00H
	DB	00H
	DB	00H
	DB	0a8H
	DB	08H
	DB	00H
	DB	00H
	DB	016H
	DB	00H
	DB	00H
	DB	00H
	DB	028H
	DB	00H
	DB	00H
	DB	00H
	DB	020H
	DB	00H
	DB	00H
	DB	00H
	DB	040H
	DB	00H
	DB	00H
	DB	00H
	DB	01H
	DB	00H
	DB	08H
	DB	00H
	DB	00H
	DB	00H
	DB	00H
	DB	00H
	DB	00H
	DB	00H
	DB	00H
	DB	00H
	DB	00H
	DB	00H
	DB	00H
	DB	00H
	DB	00H
	DB	00H
	DB	00H
	DB	00H
	DB	00H
	DB	00H
	DB	00H
	DB	00H
	DB	00H
	DB	00H
	DB	00H
	DB	00H
	DB	00H
	DB	00H
	DB	00H
	DB	00H
	DB	00H
	DB	00H
	DB	080H
	DB	00H
	DB	00H
	DB	080H
	DB	00H
	DB	00H
	DB	00H
	DB	080H
	DB	080H
	DB	00H
	DB	080H
	DB	00H
	DB	00H
	DB	00H
	DB	080H
	DB	00H
	DB	080H
	DB	00H
	DB	080H
	DB	080H
	DB	00H
	DB	00H
	DB	0c0H
	DB	0c0H
	DB	0c0H
	DB	00H
	DB	080H
	DB	080H
	DB	080H
	DB	00H
	DB	00H
	DB	00H
	DB	0ffH
	DB	00H
	DB	00H
	DB	0ffH
	DB	00H
	DB	00H
	DB	00H
	DB	0ffH
	DB	0ffH
	DB	00H
	DB	0ffH
	DB	00H
	DB	00H
	DB	00H
	DB	0ffH
	DB	00H
	DB	0ffH
	DB	00H
	DB	0ffH
	DB	0ffH
	DB	00H
	DB	00H
	DB	0ffH
	DB	0ffH
	DB	0ffH
	DB	00H
	DB	0c3H
	DB	00H
	DB	00H
	DB	00H
	DB	0cfH
	DB	00H
	DB	00H
	DB	00H
	DB	0dbH
	DB	00H
	DB	00H
	DB	00H
	DB	0e7H
	DB	00H
	DB	00H
	DB	00H
	DB	0f3H
	DB	00H
	DB	00H
	DB	00H
	DB	0ffH
	DB	00H
	DB	00H
	DB	00H
	DB	0ffH
	DB	017H
	DB	017H
	DB	00H
	DB	0ffH
	DB	02fH
	DB	02fH
	DB	00H
	DB	0ffH
	DB	053H
	DB	053H
	DB	00H
	DB	0ffH
	DB	06bH
	DB	067H
	DB	00H
	DB	0ffH
	DB	07fH
	DB	07fH
	DB	00H
	DB	0ffH
	DB	08bH
	DB	08bH
	DB	00H
	DB	0ffH
	DB	097H
	DB	097H
	DB	00H
	DB	0ffH
	DB	0a3H
	DB	0a3H
	DB	00H
	DB	0ffH
	DB	0afH
	DB	0afH
	DB	00H
	DB	0ffH
	DB	0bbH
	DB	0bbH
	DB	00H
	DB	0ffH
	DB	0c7H
	DB	0c7H
	DB	00H
	DB	0ffH
	DB	0cfH
	DB	0c7H
	DB	00H
	DB	0ffH
	DB	0dbH
	DB	0dbH
	DB	00H
	DB	0ffH
	DB	0e7H
	DB	0e7H
	DB	00H
	DB	0ffH
	DB	0f3H
	DB	0f3H
	DB	00H
	DB	0ffH
	DB	0fbH
	DB	0f7H
	DB	00H
	DB	02bH
	DB	02bH
	DB	053H
	DB	00H
	DB	037H
	DB	037H
	DB	05fH
	DB	00H
	DB	043H
	DB	043H
	DB	06bH
	DB	00H
	DB	04fH
	DB	04fH
	DB	077H
	DB	00H
	DB	057H
	DB	057H
	DB	07fH
	DB	00H
	DB	063H
	DB	063H
	DB	08bH
	DB	00H
	DB	06fH
	DB	06fH
	DB	097H
	DB	00H
	DB	07fH
	DB	07fH
	DB	0a7H
	DB	00H
	DB	08bH
	DB	08bH
	DB	0b3H
	DB	00H
	DB	097H
	DB	097H
	DB	0bfH
	DB	00H
	DB	0a7H
	DB	0a7H
	DB	0cfH
	DB	00H
	DB	0b3H
	DB	0b3H
	DB	0dbH
	DB	00H
	DB	0bfH
	DB	0bfH
	DB	0e7H
	DB	00H
	DB	0c7H
	DB	0c7H
	DB	0efH
	DB	00H
	DB	0cfH
	DB	0cfH
	DB	0f7H
	DB	00H
	DB	053H
	DB	02bH
	DB	02bH
	DB	00H
	DB	05fH
	DB	037H
	DB	037H
	DB	00H
	DB	06bH
	DB	043H
	DB	043H
	DB	00H
	DB	077H
	DB	04fH
	DB	04fH
	DB	00H
	DB	083H
	DB	05bH
	DB	05bH
	DB	00H
	DB	08fH
	DB	067H
	DB	067H
	DB	00H
	DB	09bH
	DB	073H
	DB	073H
	DB	00H
	DB	0a7H
	DB	07fH
	DB	07fH
	DB	00H
	DB	0b3H
	DB	08bH
	DB	08bH
	DB	00H
	DB	0bfH
	DB	097H
	DB	097H
	DB	00H
	DB	0cbH
	DB	0a3H
	DB	0a3H
	DB	00H
	DB	0d7H
	DB	0afH
	DB	0afH
	DB	00H
	DB	0e3H
	DB	0bbH
	DB	0bbH
	DB	00H
	DB	0ebH
	DB	0c3H
	DB	0c3H
	DB	00H
	DB	0fbH
	DB	0d3H
	DB	0d3H
	DB	00H
	DB	02fH
	DB	053H
	DB	02fH
	DB	00H
	DB	03bH
	DB	05fH
	DB	03bH
	DB	00H
	DB	047H
	DB	06bH
	DB	047H
	DB	00H
	DB	053H
	DB	077H
	DB	053H
	DB	00H
	DB	05fH
	DB	083H
	DB	05fH
	DB	00H
	DB	06bH
	DB	08fH
	DB	06bH
	DB	00H
	DB	077H
	DB	09bH
	DB	077H
	DB	00H
	DB	083H
	DB	0a7H
	DB	083H
	DB	00H
	DB	08fH
	DB	0b3H
	DB	08fH
	DB	00H
	DB	09bH
	DB	0bfH
	DB	09bH
	DB	00H
	DB	0a7H
	DB	0cbH
	DB	0a7H
	DB	00H
	DB	0b3H
	DB	0d7H
	DB	0b3H
	DB	00H
	DB	0bfH
	DB	0e3H
	DB	0bfH
	DB	00H
	DB	0cbH
	DB	0efH
	DB	0cbH
	DB	00H
	DB	0d7H
	DB	0fbH
	DB	0d7H
	DB	00H
	DB	087H
	DB	06fH
	DB	097H
	DB	00H
	DB	097H
	DB	07fH
	DB	0a7H
	DB	00H
	DB	0a7H
	DB	08fH
	DB	0b7H
	DB	00H
	DB	0b3H
	DB	09bH
	DB	0c3H
	DB	00H
	DB	0c3H
	DB	0abH
	DB	0d3H
	DB	00H
	DB	0cfH
	DB	0b7H
	DB	0dfH
	DB	00H
	DB	0dbH
	DB	0c3H
	DB	0ebH
	DB	00H
	DB	08bH
	DB	097H
	DB	06fH
	DB	00H
	DB	093H
	DB	0a3H
	DB	07bH
	DB	00H
	DB	09fH
	DB	0afH
	DB	087H
	DB	00H
	DB	0abH
	DB	0bbH
	DB	093H
	DB	00H
	DB	0b7H
	DB	0c7H
	DB	09fH
	DB	00H
	DB	0cbH
	DB	0dbH
	DB	0b3H
	DB	00H
	DB	0d7H
	DB	0e7H
	DB	0bfH
	DB	00H
	DB	0e3H
	DB	0f3H
	DB	0cbH
	DB	00H
	DB	0bH
	DB	06fH
	DB	09bH
	DB	00H
	DB	0fH
	DB	07bH
	DB	0a3H
	DB	00H
	DB	013H
	DB	087H
	DB	0afH
	DB	00H
	DB	017H
	DB	08fH
	DB	0b7H
	DB	00H
	DB	01bH
	DB	09bH
	DB	0c3H
	DB	00H
	DB	017H
	DB	0a7H
	DB	0cfH
	DB	00H
	DB	01bH
	DB	0b3H
	DB	0dbH
	DB	00H
	DB	023H
	DB	0bfH
	DB	0e7H
	DB	00H
	DB	02bH
	DB	0cbH
	DB	0f3H
	DB	00H
	DB	037H
	DB	0d7H
	DB	0ffH
	DB	00H
	DB	0ffH
	DB	0f3H
	DB	0ffH
	DB	00H
	DB	0ffH
	DB	0ebH
	DB	0ffH
	DB	00H
	DB	0ffH
	DB	0dfH
	DB	0ffH
	DB	00H
	DB	0ffH
	DB	0d3H
	DB	0ffH
	DB	00H
	DB	0ffH
	DB	0c7H
	DB	0ffH
	DB	00H
	DB	0ffH
	DB	0b7H
	DB	0ffH
	DB	00H
	DB	0ffH
	DB	0a3H
	DB	0ffH
	DB	00H
	DB	0ffH
	DB	097H
	DB	0ffH
	DB	00H
	DB	0ffH
	DB	083H
	DB	0ffH
	DB	00H
	DB	0ffH
	DB	06bH
	DB	0ffH
	DB	00H
	DB	0ffH
	DB	04bH
	DB	0ffH
	DB	00H
	DB	0e7H
	DB	00H
	DB	0e7H
	DB	00H
	DB	0d7H
	DB	00H
	DB	0d7H
	DB	00H
	DB	0c3H
	DB	00H
	DB	0c7H
	DB	00H
	DB	0b7H
	DB	00H
	DB	0b7H
	DB	00H
	DB	0a3H
	DB	00H
	DB	0a7H
	DB	00H
	DB	097H
	DB	00H
	DB	097H
	DB	00H
	DB	08bH
	DB	00H
	DB	08bH
	DB	00H
	DB	077H
	DB	00H
	DB	077H
	DB	00H
	DB	067H
	DB	00H
	DB	067H
	DB	00H
	DB	04fH
	DB	00H
	DB	053H
	DB	00H
	DB	02fH
	DB	00H
	DB	033H
	DB	00H
	DB	0ebH
	DB	0ffH
	DB	0ffH
	DB	00H
	DB	0e7H
	DB	0ffH
	DB	0ffH
	DB	00H
	DB	0dfH
	DB	0ffH
	DB	0ffH
	DB	00H
	DB	0d3H
	DB	0ffH
	DB	0ffH
	DB	00H
	DB	0bbH
	DB	0ffH
	DB	0ffH
	DB	00H
	DB	09bH
	DB	0ffH
	DB	0ffH
	DB	00H
	DB	03fH
	DB	0ffH
	DB	0ffH
	DB	00H
	DB	00H
	DB	0f3H
	DB	0f7H
	DB	00H
	DB	00H
	DB	0e7H
	DB	0ebH
	DB	00H
	DB	00H
	DB	0dfH
	DB	0dfH
	DB	00H
	DB	00H
	DB	0d3H
	DB	0d3H
	DB	00H
	DB	00H
	DB	0c7H
	DB	0c7H
	DB	00H
	DB	00H
	DB	0bbH
	DB	0bbH
	DB	00H
	DB	00H
	DB	0b3H
	DB	0afH
	DB	00H
	DB	00H
	DB	0a7H
	DB	0a7H
	DB	00H
	DB	00H
	DB	09bH
	DB	097H
	DB	00H
	DB	00H
	DB	097H
	DB	08fH
	DB	00H
	DB	00H
	DB	07fH
	DB	07fH
	DB	00H
	DB	00H
	DB	077H
	DB	077H
	DB	00H
	DB	00H
	DB	05fH
	DB	05fH
	DB	00H
	DB	00H
	DB	047H
	DB	047H
	DB	00H
	DB	00H
	DB	033H
	DB	033H
	DB	00H
	DB	0ffH
	DB	0ffH
	DB	0f7H
	DB	00H
	DB	0ffH
	DB	0ffH
	DB	0e7H
	DB	00H
	DB	0ffH
	DB	0ffH
	DB	0dbH
	DB	00H
	DB	0ffH
	DB	0ffH
	DB	0c7H
	DB	00H
	DB	0ffH
	DB	0ffH
	DB	0bbH
	DB	00H
	DB	0ffH
	DB	0ffH
	DB	097H
	DB	00H
	DB	0ffH
	DB	0ffH
	DB	07fH
	DB	00H
	DB	0ffH
	DB	0ffH
	DB	053H
	DB	00H
	DB	0efH
	DB	0efH
	DB	00H
	DB	00H
	DB	0e3H
	DB	0e3H
	DB	00H
	DB	00H
	DB	0d7H
	DB	0d7H
	DB	00H
	DB	00H
	DB	0cbH
	DB	0cbH
	DB	00H
	DB	00H
	DB	0bfH
	DB	0bfH
	DB	00H
	DB	00H
	DB	0b3H
	DB	0b3H
	DB	00H
	DB	00H
	DB	0a3H
	DB	0a3H
	DB	00H
	DB	00H
	DB	097H
	DB	093H
	DB	00H
	DB	00H
	DB	08bH
	DB	083H
	DB	00H
	DB	00H
	DB	07bH
	DB	07bH
	DB	00H
	DB	00H
	DB	067H
	DB	06bH
	DB	00H
	DB	00H
	DB	05bH
	DB	05bH
	DB	00H
	DB	00H
	DB	047H
	DB	04bH
	DB	00H
	DB	00H
	DB	023H
	DB	023H
	DB	00H
	DB	00H
	DB	0f3H
	DB	0ffH
	DB	0f3H
	DB	00H
	DB	0dfH
	DB	0ffH
	DB	0e7H
	DB	00H
	DB	0d7H
	DB	0ffH
	DB	0d7H
	DB	00H
	DB	0c3H
	DB	0ffH
	DB	0cfH
	DB	00H
	DB	0bbH
	DB	0ffH
	DB	0bbH
	DB	00H
	DB	0a3H
	DB	0ffH
	DB	0a3H
	DB	00H
	DB	087H
	DB	0ffH
	DB	087H
	DB	00H
	DB	067H
	DB	0ffH
	DB	067H
	DB	00H
	DB	037H
	DB	0ffH
	DB	037H
	DB	00H
	DB	0bH
	DB	0ffH
	DB	00H
	DB	00H
	DB	00H
	DB	0f3H
	DB	00H
	DB	00H
	DB	00H
	DB	0ebH
	DB	00H
	DB	00H
	DB	00H
	DB	0e3H
	DB	00H
	DB	00H
	DB	00H
	DB	0d7H
	DB	00H
	DB	00H
	DB	00H
	DB	0cbH
	DB	00H
	DB	00H
	DB	00H
	DB	0bfH
	DB	00H
	DB	00H
	DB	00H
	DB	0b3H
	DB	00H
	DB	00H
	DB	00H
	DB	0a7H
	DB	00H
	DB	00H
	DB	00H
	DB	09fH
	DB	00H
	DB	00H
	DB	00H
	DB	093H
	DB	00H
	DB	00H
	DB	00H
	DB	087H
	DB	00H
	DB	00H
	DB	00H
	DB	07fH
	DB	00H
	DB	00H
	DB	00H
	DB	077H
	DB	00H
	DB	00H
	DB	00H
	DB	06fH
	DB	00H
	DB	00H
	DB	00H
	DB	067H
	DB	00H
	DB	00H
	DB	00H
	DB	05fH
	DB	00H
	DB	00H
	DB	00H
	DB	053H
	DB	00H
	DB	00H
	DB	00H
	DB	047H
	DB	00H
	DB	00H
	DB	00H
	DB	037H
	DB	00H
	DB	00H
	DB	00H
	DB	023H
	DB	00H
	DB	00H
	DB	0f7H
	DB	0f3H
	DB	0ffH
	DB	00H
	DB	0ebH
	DB	0ebH
	DB	0ffH
	DB	00H
	DB	0dfH
	DB	0dfH
	DB	0ffH
	DB	00H
	DB	0d3H
	DB	0d3H
	DB	0ffH
	DB	00H
	DB	0c3H
	DB	0c3H
	DB	0ffH
	DB	00H
	DB	0afH
	DB	0afH
	DB	0ffH
	DB	00H
	DB	09bH
	DB	09bH
	DB	0ffH
	DB	00H
	DB	08bH
	DB	08bH
	DB	0ffH
	DB	00H
	DB	077H
	DB	077H
	DB	0ffH
	DB	00H
	DB	067H
	DB	067H
	DB	0ffH
	DB	00H
	DB	053H
	DB	053H
	DB	0ffH
	DB	00H
	DB	043H
	DB	043H
	DB	0ffH
	DB	00H
	DB	02fH
	DB	02fH
	DB	0ffH
	DB	00H
	DB	017H
	DB	017H
	DB	0ffH
	DB	00H
	DB	00H
	DB	00H
	DB	047H
	DB	00H
	DB	00H
	DB	00H
	DB	057H
	DB	00H
	DB	00H
	DB	00H
	DB	067H
	DB	00H
	DB	00H
	DB	00H
	DB	073H
	DB	00H
	DB	00H
	DB	00H
	DB	07fH
	DB	00H
	DB	00H
	DB	00H
	DB	08bH
	DB	00H
	DB	00H
	DB	00H
	DB	097H
	DB	00H
	DB	00H
	DB	00H
	DB	0a3H
	DB	00H
	DB	00H
	DB	00H
	DB	0afH
	DB	00H
	DB	00H
	DB	00H
	DB	0bbH
	DB	00H
	DB	00H
	DB	00H
	DB	0c3H
	DB	00H
	DB	00H
	DB	00H
	DB	0cfH
	DB	00H
	DB	00H
	DB	00H
	DB	0dbH
	DB	00H
	DB	00H
	DB	00H
	DB	0e7H
	DB	00H
	DB	00H
	DB	00H
	DB	0f3H
	DB	00H
	DB	07cH
	DB	00H
	DB	054H
	DB	00H
	DB	09bH
	DB	00H
	DB	069H
	DB	00H
	DB	0baH
	DB	00H
	DB	07eH
	DB	00H
	DB	0d9H
	DB	00H
	DB	093H
	DB	00H
	DB	0f0H
	DB	00H
	DB	0aaH
	DB	00H
	DB	0ffH
	DB	024H
	DB	0b6H
	DB	00H
	DB	0ffH
	DB	048H
	DB	0c2H
	DB	00H
	DB	0ffH
	DB	06cH
	DB	0ceH
	DB	00H
	DB	0ffH
	DB	090H
	DB	0daH
	DB	00H
	DB	0ffH
	DB	0b4H
	DB	0e6H
	DB	00H
	DB	0f0H
	DB	0f0H
	DB	0f0H
	DB	00H
	DB	0dcH
	DB	0dcH
	DB	0dcH
	DB	00H
	DB	0c8H
	DB	0c8H
	DB	0c8H
	DB	00H
	DB	0b4H
	DB	0b4H
	DB	0b4H
	DB	00H
	DB	0a0H
	DB	0a0H
	DB	0a0H
	DB	00H
	DB	080H
	DB	080H
	DB	080H
	DB	00H
	DB	00H
	DB	00H
	DB	0ffH
	DB	00H
	DB	00H
	DB	0ffH
	DB	00H
	DB	00H
	DB	00H
	DB	0ffH
	DB	0ffH
	DB	00H
	DB	0ffH
	DB	00H
	DB	00H
	DB	00H
	DB	0ffH
	DB	00H
	DB	0ffH
	DB	00H
	DB	0ffH
	DB	0ffH
	DB	00H
	DB	00H
	DB	0ffH
	DB	0ffH
	DB	0ffH
	DB	00H
	DB	00H
	DB	00H
	DB	00H
	DB	00H
	DB	00H
	DB	00H
	DB	00H
	DB	00H
	DB	00H
	DB	00H
	DB	00H
	DB	00H
	DB	00H
	DB	00H
	DB	00H
	DB	00H
	DB	00H
	DB	00H
	DB	00H
	DB	00H
	DB	00H
	DB	00H
	DB	00H
	DB	00H
	DB	00H
	DB	00H
	DB	00H
	DB	00H
	DB	00H
	DB	00H
	DB	00H
	DB	00H
	DB	00H
	DB	00H
	DB	00H
	DB	00H
	DB	00H
	DB	00H
	DB	00H
	DB	00H
	DB	00H
	DB	00H
	DB	00H
	DB	00H
	DB	00H
	DB	00H
	DB	00H
	DB	00H
	DB	00H
	DB	00H
	DB	00H
	DB	00H
	DB	00H
	DB	00H
	DB	00H
	DB	00H
	DB	00H
	DB	00H
	DB	00H
	DB	00H
	DB	00H
	DB	00H
	DB	00H
	DB	00H
	DB	00H
	DB	00H
	DB	00H
	DB	00H
	DB	00H
	DB	00H
	DB	00H
	DB	00H
	DB	00H
	DB	00H
	DB	00H
	DB	00H
	DB	00H
	DB	00H
	DB	00H
	DB	00H
	DB	00H
	DB	00H
	DB	00H
	DB	00H
	DB	00H
	DB	00H
	DB	00H
	DB	00H
	DB	00H
	DB	00H
	DB	00H
	DB	00H
	DB	00H
	DB	00H
	DB	00H
	DB	00H
	DB	00H
	DB	00H
	DB	00H
	DB	00H
	DB	00H
	DB	00H
	DB	00H
	DB	00H
	DB	00H
	DB	00H
	DB	00H
	DB	00H
	DB	00H
	DB	00H
	DB	00H
	DB	00H
	DB	00H
	DB	00H
	DB	00H
	DB	00H
	DB	00H
	DB	00H
	DB	00H
	DB	00H
	DB	00H
	DB	00H
	DB	00H
	DB	00H
	DB	00H
	DB	00H
	DB	00H
	DB	00H
	DB	00H
	DB	00H
	DB	00H
	DB	00H
	DB	00H
	DB	00H
	DB	00H
	DB	00H
	DB	00H
	DB	00H
	DB	00H
	DB	00H
	DB	00H
	DB	00H
	DB	00H
	DB	00H
	DB	00H
	DB	00H
	DB	00H
	DB	00H
	DB	00H
	DB	00H
	DB	00H
	DB	00H
	DB	00H
	DB	00H
	DB	00H
	DB	00H
	DB	00H
	DB	00H
	DB	00H
	DB	00H
	DB	00H
	DB	00H
	DB	00H
	DB	00H
	DB	00H
	DB	00H
	DB	00H
	DB	00H
	DB	00H
	DB	00H
	DB	00H
	DB	00H
	DB	00H
	DB	00H
	DB	00H
	DB	00H
	DB	00H
	DB	00H
	DB	00H
	DB	00H
	DB	00H
	DB	00H
	DB	00H
	DB	00H
	DB	00H
	DB	00H
	DB	00H
	DB	00H
	DB	00H
	DB	00H
	DB	00H
	DB	00H
	DB	00H
	DB	00H
	DB	00H
	DB	00H
	DB	00H
	DB	00H
	DB	00H
	DB	00H
	DB	00H
	DB	00H
	DB	00H
	DB	00H
	DB	00H
	DB	00H
	DB	00H
	DB	00H
	DB	00H
	DB	00H
	DB	00H
	DB	00H
	DB	00H
	DB	00H
	DB	00H
	DB	00H
	DB	00H
	DB	00H
	DB	00H
	DB	00H
	DB	00H
	DB	00H
	DB	00H
	DB	00H
	DB	00H
	DB	00H
	DB	00H
	DB	00H
	DB	00H
	DB	00H
	DB	00H
	DB	00H
	DB	00H
	DB	00H
	DB	00H
	DB	00H
	DB	00H
	DB	00H
	DB	00H
	DB	00H
	DB	00H
	DB	00H
	DB	00H
	DB	00H
	DB	00H
	DB	00H
	DB	00H
	DB	00H
	DB	00H
	DB	00H
	DB	00H
	DB	00H
	DB	00H
	DB	00H
	DB	00H
	DB	00H
	DB	00H
	DB	00H
	DB	00H
	DB	00H
	DB	0f6H
	DB	0f6H
	DB	0f6H
	DB	0f6H
	DB	0f6H
	DB	0f6H
	DB	0f6H
	DB	0f6H
	DB	0f6H
	DB	0f6H
	DB	0f6H
	DB	0f6H
	DB	0f6H
	DB	0f6H
	DB	0f6H
	DB	0f6H
	DB	0f6H
	DB	0f6H
	DB	0f6H
	DB	0f6H
	DB	0f6H
	DB	0f6H
	DB	0f6H
	DB	0f6H
	DB	00H
	DB	00H
	DB	00H
	DB	00H
	DB	00H
	DB	00H
	DB	00H
	DB	00H
	DB	0f6H
	DB	0f6H
	DB	08H
	DB	08H
	DB	08H
	DB	08H
	DB	08H
	DB	08H
	DB	0f6H
	DB	08H
	DB	08H
	DB	08H
	DB	08H
	DB	08H
	DB	08H
	DB	0f6H
	DB	08H
	DB	08H
	DB	08H
	DB	08H
	DB	08H
	DB	08H
	DB	0f6H
	DB	0f6H
	DB	00H
	DB	00H
	DB	00H
	DB	00H
	DB	00H
	DB	00H
	DB	00H
	DB	00H
	DB	0f6H
	DB	0f6H
	DB	0fH
	DB	00H
	DB	08H
	DB	00H
	DB	0f6H
	DB	08H
	DB	0f6H
	DB	0fH
	DB	07H
	DB	00H
	DB	00H
	DB	0f6H
	DB	08H
	DB	0f6H
	DB	0fH
	DB	07H
	DB	00H
	DB	00H
	DB	0f6H
	DB	08H
	DB	0f6H
	DB	0f6H
	DB	00H
	DB	00H
	DB	00H
	DB	00H
	DB	00H
	DB	00H
	DB	00H
	DB	00H
	DB	0f6H
	DB	0f6H
	DB	0fH
	DB	07H
	DB	07H
	DB	07H
	DB	07H
	DB	08H
	DB	0f6H
	DB	0fH
	DB	07H
	DB	07H
	DB	07H
	DB	07H
	DB	08H
	DB	0f6H
	DB	0fH
	DB	07H
	DB	07H
	DB	07H
	DB	07H
	DB	08H
	DB	0f6H
	DB	0f6H
	DB	00H
	DB	00H
	DB	00H
	DB	00H
	DB	00H
	DB	00H
	DB	00H
	DB	00H
	DB	0f6H
	DB	0f6H
	DB	0fH
	DB	0fH
	DB	0fH
	DB	0fH
	DB	0fH
	DB	0fH
	DB	0f6H
	DB	0fH
	DB	0fH
	DB	0fH
	DB	0fH
	DB	0fH
	DB	0fH
	DB	0f6H
	DB	0fH
	DB	0fH
	DB	0fH
	DB	0fH
	DB	0fH
	DB	0fH
	DB	0f6H
	DB	0f6H
	DB	00H
	DB	00H
	DB	00H
	DB	00H
	DB	00H
	DB	00H
	DB	00H
	DB	00H
	DB	0f6H
	DB	0f6H
	DB	0f6H
	DB	0f6H
	DB	0f6H
	DB	0f6H
	DB	0f6H
	DB	0f6H
	DB	0f6H
	DB	0f6H
	DB	0f6H
	DB	0f6H
	DB	0f6H
	DB	0f6H
	DB	0f6H
	DB	0f6H
	DB	0f6H
	DB	0f6H
	DB	0f6H
	DB	0f6H
	DB	0f6H
	DB	0f6H
	DB	0f6H
	DB	0f6H
	DB	00H
	DB	00H
	DB	00H
	DB	00H
	DB	00H
	DB	00H
	DB	00H
	DB	00H
	DB	0f6H
	DB	08H
	DB	097H
	DB	097H
	DB	00H
	DB	097H
	DB	00H
	DB	08H
	DB	0f6H
	DB	0f6H
	DB	0f6H
	DB	0f6H
	DB	0f6H
	DB	0f6H
	DB	0f6H
	DB	0f6H
	DB	0f6H
	DB	0f6H
	DB	0f6H
	DB	0f6H
	DB	0f6H
	DB	0f6H
	DB	0f6H
	DB	0f6H
	DB	00H
	DB	00H
	DB	00H
	DB	00H
	DB	00H
	DB	00H
	DB	00H
	DB	00H
	DB	0f7H
	DB	097H
	DB	0bH
	DB	0bH
	DB	0f6H
	DB	0bH
	DB	0bH
	DB	097H
	DB	0f7H
	DB	0f6H
	DB	00H
	DB	0f7H
	DB	00H
	DB	08H
	DB	00H
	DB	0f6H
	DB	0f7H
	DB	00H
	DB	0f6H
	DB	08H
	DB	00H
	DB	0f6H
	DB	0f6H
	DB	0f6H
	DB	00H
	DB	00H
	DB	00H
	DB	00H
	DB	00H
	DB	00H
	DB	00H
	DB	00H
	DB	0f7H
	DB	097H
	DB	0bH
	DB	0bH
	DB	095H
	DB	0bH
	DB	0bH
	DB	097H
	DB	0f7H
	DB	0f6H
	DB	0f6H
	DB	0f6H
	DB	0f6H
	DB	0f6H
	DB	0f6H
	DB	0f6H
	DB	0f6H
	DB	0f6H
	DB	0f6H
	DB	0f6H
	DB	0f6H
	DB	0f6H
	DB	0f6H
	DB	0f6H
	DB	00H
	DB	00H
	DB	00H
	DB	00H
	DB	00H
	DB	00H
	DB	00H
	DB	00H
	DB	0f6H
	DB	0f7H
	DB	097H
	DB	0bH
	DB	00H
	DB	0bH
	DB	097H
	DB	0f7H
	DB	0f6H
	DB	0f6H
	DB	0f6H
	DB	0f6H
	DB	0f6H
	DB	0f6H
	DB	0f6H
	DB	0f6H
	DB	0f6H
	DB	0f6H
	DB	0f6H
	DB	0f6H
	DB	0f6H
	DB	0f6H
	DB	0f6H
	DB	0f6H
	DB	00H
	DB	00H
	DB	00H
	DB	00H
	DB	00H
	DB	00H
	DB	00H
	DB	00H
	DB	0f6H
	DB	0f6H
	DB	0f7H
	DB	097H
	DB	0bH
	DB	00H
	DB	0f7H
	DB	0f6H
	DB	0f6H
	DB	0f6H
	DB	00H
	DB	08H
	DB	00H
	DB	00H
	DB	08H
	DB	00H
	DB	0f6H
	DB	00H
	DB	00H
	DB	08H
	DB	00H
	DB	0f6H
	DB	0f6H
	DB	0f6H
	DB	00H
	DB	00H
	DB	00H
	DB	00H
	DB	00H
	DB	00H
	DB	00H
	DB	00H
	DB	0f6H
	DB	0f6H
	DB	0f6H
	DB	0f7H
	DB	095H
	DB	0f7H
	DB	0f6H
	DB	0f6H
	DB	0f6H
	DB	0f6H
	DB	0f6H
	DB	0f6H
	DB	0f6H
	DB	0f6H
	DB	0f6H
	DB	0f6H
	DB	0f6H
	DB	0f6H
	DB	0f6H
	DB	0f6H
	DB	0f6H
	DB	0f6H
	DB	0f6H
	DB	0f6H
	DB	00H
	DB	00H
	DB	00H
	DB	00H
	DB	00H
	DB	00H
	DB	00H
	DB	00H
	DB	0f6H
	DB	0f6H
	DB	0f6H
	DB	0f6H
	DB	0f6H
	DB	0f6H
	DB	0f6H
	DB	0f6H
	DB	0f6H
	DB	0f6H
	DB	0f6H
	DB	0f6H
	DB	0f6H
	DB	0f6H
	DB	0f6H
	DB	0f6H
	DB	0f6H
	DB	0f6H
	DB	0f6H
	DB	0f6H
	DB	0f6H
	DB	0f6H
	DB	0f6H
	DB	0f6H
	DB	00H
	DB	00H
	DB	00H
	DB	00H
	DB	00H
	DB	00H
	DB	00H
	DB	00H
	DB	08H
	DB	08H
	DB	08H
	DB	08H
	DB	08H
	DB	08H
	DB	08H
	DB	08H
	DB	08H
	DB	08H
	DB	08H
	DB	08H
	DB	08H
	DB	08H
	DB	08H
	DB	08H
	DB	08H
	DB	08H
	DB	08H
	DB	08H
	DB	08H
	DB	08H
	DB	08H
	DB	08H
	DB	00H
	DB	00H
	DB	00H
	DB	00H
	DB	00H
	DB	00H
	DB	00H
	DB	00H
	DB	0cH
	DB	0fH
	DB	01aH
	DB	023H
	DB	020H
	DB	018H
	DB	020H
	DB	024H
	DB	023H
	DB	0cH
	DB	0cH
	DB	0cH
	DB	0cH
	DB	0cH
	DB	0cH
	DB	0cH
	DB	0cH
	DB	0cH
	DB	0cH
	DB	0cH
	DB	0cH
	DB	0f6H
	DB	0f5H
	DB	0cH
	DB	00H
	DB	00H
	DB	00H
	DB	00H
	DB	00H
	DB	00H
	DB	00H
	DB	00H
	DB	0cH
	DB	0cH
	DB	0cH
	DB	0cH
	DB	0cH
	DB	0cH
	DB	0cH
	DB	0cH
	DB	0cH
	DB	0cH
	DB	0cH
	DB	0cH
	DB	0cH
	DB	0cH
	DB	0cH
	DB	0cH
	DB	0cH
	DB	0cH
	DB	0cH
	DB	0cH
	DB	0cH
	DB	0f5H
	DB	0f6H
	DB	0cH
	DB	00H
	DB	00H
	DB	00H
	DB	00H
	DB	00H
	DB	00H
	DB	00H
	DB	00H
	DB	00H
	DB	00H
	DB	00H
	DB	00H
	DB	00H
	DB	00H
	DB	00H
	DB	00H
	DB	00H
	DB	00H
	DB	00H
	DB	00H
	DB	00H
	DB	00H
	DB	00H
	DB	00H
	DB	00H
	DB	00H
	DB	00H
	DB	00H
	DB	00H
	DB	00H
	DB	00H
	DB	00H
	DB	00H
	DB	00H
	DB	00H
	DB	00H
	DB	00H
	DB	00H
	DB	00H
	DB	00H
	DB	00H
	DB	00H
	DB	00H
	DB	00H
	DB	00H
	DB	00H
	DB	00H
	DB	00H
	DB	00H
	DB	00H
	DB	00H
	DB	00H
	DB	00H
	DB	00H
	DB	00H
	DB	00H
	DB	00H
	DB	00H
	DB	00H
	DB	00H
	DB	00H
	DB	00H
	DB	00H
	DB	00H
	DB	00H
	DB	00H
	DB	00H
	DB	00H
	DB	00H
	DB	00H
	DB	00H
	DB	00H
	DB	00H
	DB	00H
	DB	00H
	DB	00H
	DB	00H
	DB	00H
	DB	00H
	DB	00H
	DB	00H
	DB	00H
	DB	00H
	DB	00H
	DB	00H
	DB	00H
	DB	00H
	DB	00H
	DB	00H
	DB	00H
	DB	00H
	DB	00H
	DB	00H
	DB	00H
	DB	00H
	DB	00H
	DB	00H
	DB	00H
	DB	00H
	DB	00H
	DB	00H
	DB	00H
	DB	00H
	DB	00H
	DB	00H
	DB	00H
	DB	00H
	DB	00H
	DB	00H
	DB	00H
	DB	00H
	DB	00H
	DB	00H
	DB	00H
	DB	00H
	DB	00H
	DB	00H
	DB	00H
	DB	00H
	DB	00H
	DB	00H
	DB	00H
	DB	00H
	DB	00H
	DB	00H
	DB	00H
	DB	00H
	DB	00H
	DB	00H
	DB	00H
	DB	00H
	DB	00H
	DB	00H
	DB	00H
	DB	00H
	DB	00H
	DB	00H
	DB	00H
	DB	00H
	DB	00H
	DB	00H
	DB	00H
	DB	00H
	DB	00H
	DB	00H
	DB	00H
	DB	00H
	DB	00H
	DB	00H
	DB	00H
	DB	00H
	DB	00H
	DB	00H
	DB	00H
	DB	00H
	DB	00H
	DB	00H
	DB	00H
	DB	00H
	DB	00H
	DB	00H
	DB	00H
	DB	00H
	DB	00H
	DB	00H
	DB	00H
	DB	00H
	DB	00H
	DB	00H
	DB	00H
	DB	00H
	DB	00H
	DB	00H
	DB	00H
	DB	00H
	DB	00H
	DB	00H
	DB	00H
	DB	00H
	DB	00H
	DB	00H
	DB	00H
	DB	00H
	DB	00H
	DB	00H
	DB	00H
	DB	00H
	DB	00H
	DB	00H
	DB	00H
	DB	00H
	DB	00H
	DB	00H
	DB	00H
	DB	00H
	DB	00H
	DB	00H
	DB	00H
	DB	00H
	DB	00H
	DB	00H
	DB	00H
	DB	00H
	DB	00H
	DB	00H
	DB	00H
	DB	00H
	DB	00H
	DB	00H
	DB	00H
	DB	00H
	DB	00H
	DB	00H
	DB	00H
	DB	00H
	DB	00H
	DB	00H
	DB	00H
	DB	00H
	DB	00H
	DB	00H
	DB	00H
	DB	00H
	DB	00H
	DB	00H
	DB	00H
	DB	00H
	DB	00H
	DB	00H
	DB	00H
	DB	00H
	DB	00H
	DB	00H
	DB	00H
	DB	00H
	DB	00H
	DB	00H
	DB	00H
	DB	00H
	DB	00H
	DB	00H
	DB	00H
	DB	00H
	DB	00H
	DB	00H
	DB	00H
	DB	00H
	DB	00H
	DB	00H
	DB	00H
	DB	00H
	DB	00H
	DB	00H
	DB	00H
	DB	00H
	DB	00H
	DB	00H
	DB	00H
	DB	00H
	DB	00H
	DB	0ffH
	DB	0ffH
	DB	0ffH
	DB	0ffH
	DB	0ffH
	DB	0ffH
	DB	0ffH
	DB	0ffH
	DB	0ffH
	DB	0ffH
	DB	0ffH
	DB	0ffH
	DB	0ffH
	DB	0ffH
	DB	0ffH
	DB	0ffH
	DB	0ffH
	DB	0ffH
	DB	0ffH
	DB	0ffH
	DB	0ffH
	DB	0ffH
	DB	0ffH
	DB	0ffH
	DB	0ffH
	DB	0ffH
	DB	0ffH
	DB	0ffH
	DB	0e0H
	DB	00H
	DB	00H
	DB	07H
	DB	0e0H
	DB	00H
	DB	00H
	DB	07H
	DB	0e0H
	DB	00H
	DB	00H
	DB	07H
	DB	0e0H
	DB	00H
	DB	00H
	DB	07H
	DB	0e0H
	DB	00H
	DB	00H
	DB	07H
	DB	0e0H
	DB	00H
	DB	00H
	DB	07H
	DB	0e0H
	DB	00H
	DB	00H
	DB	07H
	DB	0e0H
	DB	00H
	DB	00H
	DB	07H
	DB	0e0H
	DB	00H
	DB	00H
	DB	07H
	DB	0e0H
	DB	00H
	DB	00H
	DB	07H
	DB	0e0H
	DB	00H
	DB	00H
	DB	07H
	DB	0e0H
	DB	00H
	DB	00H
	DB	07H
	DB	0e0H
	DB	00H
	DB	00H
	DB	07H
	DB	0e0H
	DB	00H
	DB	00H
	DB	07H
	DB	0e0H
	DB	00H
	DB	00H
	DB	07H
	DB	0e0H
	DB	00H
	DB	00H
	DB	07H
	DB	0e0H
	DB	00H
	DB	00H
	DB	07H
	DB	0e0H
	DB	00H
	DB	00H
	DB	07H
	DB	0ffH
	DB	0ffH
	DB	0ffH
	DB	0ffH
	DB	0ffH
	DB	0ffH
	DB	0ffH
	DB	0ffH
	DB	0ffH
	DB	0ffH
	DB	0ffH
	DB	0ffH
	DB	0ffH
	DB	0ffH
	DB	0ffH
	DB	0ffH
	DB	0ffH
	DB	0ffH
	DB	0ffH
	DB	0ffH
	DB	0ffH
	DB	0ffH
	DB	0ffH
	DB	0ffH
	DB	0ffH
	DB	0ffH
	DB	0ffH
	DB	0ffH
	ORG $+2
?qt_resource_name@@3QBEB DB 00H				; qt_resource_name
	DB	012H
	DB	03H
	DB	02H
	DB	032H
	DB	09fH
	DB	00H
	DB	04cH
	DB	00H
	DB	061H
	DB	00H
	DB	073H
	DB	00H
	DB	074H
	DB	00H
	DB	04dH
	DB	00H
	DB	073H
	DB	00H
	DB	067H
	DB	00H
	DB	042H
	DB	00H
	DB	06fH
	DB	00H
	DB	078H
	DB	00H
	DB	049H
	DB	00H
	DB	06eH
	DB	00H
	DB	066H
	DB	00H
	DB	06fH
	DB	00H
	DB	02eH
	DB	00H
	DB	069H
	DB	00H
	DB	063H
	DB	00H
	DB	06fH
	ORG $+2
?qt_resource_struct@@3QBEB DB 00H			; qt_resource_struct
	DB	00H
	DB	00H
	DB	00H
	DB	00H
	DB	02H
	DB	00H
	DB	00H
	DB	00H
	DB	01H
	DB	00H
	DB	00H
	DB	00H
	DB	01H
	DB	00H
	DB	00H
	DB	00H
	DB	00H
	DB	00H
	DB	00H
	DB	00H
	DB	00H
	DB	00H
	DB	00H
	DB	00H
	DB	00H
	DB	00H
	DB	00H
	DB	00H
	DB	00H
	DB	00H
	DB	01H
	DB	00H
	DB	00H
	DB	00H
	DB	00H
	DB	00H
	DB	00H
	DB	01H
	DB	016H
	DB	05cH
	DB	0cdH
	DB	080H
	DB	0c0H
CONST	ENDS
PUBLIC	?qInitResources_LastMsgBoxInfo@@YAHXZ		; qInitResources_LastMsgBoxInfo
PUBLIC	?qCleanupResources_LastMsgBoxInfo@@YAHXZ	; qCleanupResources_LastMsgBoxInfo
EXTRN	_atexit:PROC
EXTRN	?qRegisterResourceData@@YA_NHPBE00@Z:PROC	; qRegisterResourceData
EXTRN	?qUnregisterResourceData@@YA_NHPBE00@Z:PROC	; qUnregisterResourceData
EXTRN	@__security_check_cookie@4:PROC
EXTRN	___CxxFrameHandler3:PROC
EXTRN	___security_cookie:DWORD
_BSS	SEGMENT
?dummy@?A0xd43f7069@@3Uinitializer@1@A DB 01H DUP (?)	; `anonymous namespace'::dummy
_BSS	ENDS
CRT$XCU	SEGMENT
?dummy$initializer$@?A0xd43f7069@@3P6AXXZA DD FLAT:??__Edummy@?A0xd43f7069@@YAXXZ ; `anonymous namespace'::dummy$initializer$
CRT$XCU	ENDS
;	COMDAT xdata$x
xdata$x	SEGMENT
__ehfuncinfo$??1initializer@?A0xd43f7069@@QAE@XZ DD 019930522H
	DD	00H
	DD	00H
	DD	2 DUP(00H)
	DD	2 DUP(00H)
	DD	00H
	DD	05H
xdata$x	ENDS
; Function compile flags: /Odtp
;	COMDAT ??__Fdummy@?A0xd43f7069@@YAXXZ
text$yd	SEGMENT
??__Fdummy@?A0xd43f7069@@YAXXZ PROC			; `anonymous namespace'::`dynamic atexit destructor for 'dummy'', COMDAT
	push	ebp
	mov	ebp, esp
	mov	ecx, OFFSET ?dummy@?A0xd43f7069@@3Uinitializer@1@A ; `anonymous namespace'::dummy
	call	??1initializer@?A0xd43f7069@@QAE@XZ	; `anonymous namespace'::initializer::~initializer
	pop	ebp
	ret	0
??__Fdummy@?A0xd43f7069@@YAXXZ ENDP			; `anonymous namespace'::`dynamic atexit destructor for 'dummy''
text$yd	ENDS
; Function compile flags: /Odtp
;	COMDAT ??__Edummy@?A0xd43f7069@@YAXXZ
text$di	SEGMENT
??__Edummy@?A0xd43f7069@@YAXXZ PROC			; `anonymous namespace'::`dynamic initializer for 'dummy'', COMDAT
; File C:\Users\lfish\Projects\WinViaCppStudy\22-LastMsgBoxInfo\22-LastMsgBoxInfo\Debug\rcc\qrc_LastMsgBoxInfo.cpp
; Line 221
	push	ebp
	mov	ebp, esp
	mov	ecx, OFFSET ?dummy@?A0xd43f7069@@3Uinitializer@1@A ; `anonymous namespace'::dummy
	call	??0initializer@?A0xd43f7069@@QAE@XZ	; `anonymous namespace'::initializer::initializer
	push	OFFSET ??__Fdummy@?A0xd43f7069@@YAXXZ	; `anonymous namespace'::`dynamic atexit destructor for 'dummy''
	call	_atexit
	add	esp, 4
	pop	ebp
	ret	0
??__Edummy@?A0xd43f7069@@YAXXZ ENDP			; `anonymous namespace'::`dynamic initializer for 'dummy''
text$di	ENDS
; Function compile flags: /Odtp
;	COMDAT ??1initializer@?A0xd43f7069@@QAE@XZ
_TEXT	SEGMENT
_this$ = -16						; size = 4
__$EHRec$ = -12						; size = 12
??1initializer@?A0xd43f7069@@QAE@XZ PROC		; `anonymous namespace'::initializer::~initializer, COMDAT
; _this$ = ecx
; File C:\Users\lfish\Projects\WinViaCppStudy\22-LastMsgBoxInfo\22-LastMsgBoxInfo\Debug\rcc\qrc_LastMsgBoxInfo.cpp
; Line 220
	push	ebp
	mov	ebp, esp
	push	-1
	push	__ehhandler$??1initializer@?A0xd43f7069@@QAE@XZ
	mov	eax, DWORD PTR fs:0
	push	eax
	push	ecx
	mov	eax, DWORD PTR ___security_cookie
	xor	eax, ebp
	push	eax
	lea	eax, DWORD PTR __$EHRec$[ebp]
	mov	DWORD PTR fs:0, eax
	mov	DWORD PTR _this$[ebp], ecx
	call	?qCleanupResources_LastMsgBoxInfo@@YAHXZ ; qCleanupResources_LastMsgBoxInfo
	mov	ecx, DWORD PTR __$EHRec$[ebp]
	mov	DWORD PTR fs:0, ecx
	pop	ecx
	mov	esp, ebp
	pop	ebp
	ret	0
_TEXT	ENDS
;	COMDAT text$x
text$x	SEGMENT
__ehhandler$??1initializer@?A0xd43f7069@@QAE@XZ:
	mov	edx, DWORD PTR [esp+8]
	lea	eax, DWORD PTR [edx+12]
	mov	ecx, DWORD PTR [edx-8]
	xor	ecx, eax
	call	@__security_check_cookie@4
	mov	eax, OFFSET __ehfuncinfo$??1initializer@?A0xd43f7069@@QAE@XZ
	jmp	___CxxFrameHandler3
text$x	ENDS
??1initializer@?A0xd43f7069@@QAE@XZ ENDP		; `anonymous namespace'::initializer::~initializer
; Function compile flags: /Odtp
;	COMDAT ??0initializer@?A0xd43f7069@@QAE@XZ
_TEXT	SEGMENT
_this$ = -4						; size = 4
??0initializer@?A0xd43f7069@@QAE@XZ PROC		; `anonymous namespace'::initializer::initializer, COMDAT
; _this$ = ecx
; File C:\Users\lfish\Projects\WinViaCppStudy\22-LastMsgBoxInfo\22-LastMsgBoxInfo\Debug\rcc\qrc_LastMsgBoxInfo.cpp
; Line 219
	push	ebp
	mov	ebp, esp
	push	ecx
	mov	DWORD PTR _this$[ebp], ecx
	call	?qInitResources_LastMsgBoxInfo@@YAHXZ	; qInitResources_LastMsgBoxInfo
	mov	eax, DWORD PTR _this$[ebp]
	mov	esp, ebp
	pop	ebp
	ret	0
??0initializer@?A0xd43f7069@@QAE@XZ ENDP		; `anonymous namespace'::initializer::initializer
_TEXT	ENDS
; Function compile flags: /Odtp
_TEXT	SEGMENT
_version$ = -4						; size = 4
?qCleanupResources_LastMsgBoxInfo@@YAHXZ PROC		; qCleanupResources_LastMsgBoxInfo
; File C:\Users\lfish\Projects\WinViaCppStudy\22-LastMsgBoxInfo\22-LastMsgBoxInfo\Debug\rcc\qrc_LastMsgBoxInfo.cpp
; Line 210
	push	ebp
	mov	ebp, esp
	push	ecx
; Line 211
	mov	DWORD PTR _version$[ebp], 3
; Line 212
	push	OFFSET ?qt_resource_data@@3QBEB
	push	OFFSET ?qt_resource_name@@3QBEB
	push	OFFSET ?qt_resource_struct@@3QBEB
	mov	eax, DWORD PTR _version$[ebp]
	push	eax
	call	?qUnregisterResourceData@@YA_NHPBE00@Z	; qUnregisterResourceData
	add	esp, 16					; 00000010H
; Line 214
	mov	eax, 1
; Line 215
	mov	esp, ebp
	pop	ebp
	ret	0
?qCleanupResources_LastMsgBoxInfo@@YAHXZ ENDP		; qCleanupResources_LastMsgBoxInfo
_TEXT	ENDS
; Function compile flags: /Odtp
_TEXT	SEGMENT
_version$ = -4						; size = 4
?qInitResources_LastMsgBoxInfo@@YAHXZ PROC		; qInitResources_LastMsgBoxInfo
; File C:\Users\lfish\Projects\WinViaCppStudy\22-LastMsgBoxInfo\22-LastMsgBoxInfo\Debug\rcc\qrc_LastMsgBoxInfo.cpp
; Line 201
	push	ebp
	mov	ebp, esp
	push	ecx
; Line 202
	mov	DWORD PTR _version$[ebp], 3
; Line 203
	push	OFFSET ?qt_resource_data@@3QBEB
	push	OFFSET ?qt_resource_name@@3QBEB
	push	OFFSET ?qt_resource_struct@@3QBEB
	mov	eax, DWORD PTR _version$[ebp]
	push	eax
	call	?qRegisterResourceData@@YA_NHPBE00@Z	; qRegisterResourceData
	add	esp, 16					; 00000010H
; Line 205
	mov	eax, 1
; Line 206
	mov	esp, ebp
	pop	ebp
	ret	0
?qInitResources_LastMsgBoxInfo@@YAHXZ ENDP		; qInitResources_LastMsgBoxInfo
_TEXT	ENDS
END
