; Listing generated by Microsoft (R) Optimizing Compiler Version 19.23.28105.4 

	TITLE	C:\Users\lfish\Projects\WinViaCppStudy\17-MMFShare\17-MMFShare\Debug\rcc\qrc_MMFShare.cpp
	.686P
	.XMM
	include listing.inc
	.model	flat

INCLUDELIB MSVCRTD
INCLUDELIB OLDNAMES

CONST	SEGMENT
?qt_resource_data@@3QBEB DB 00H				; qt_resource_data
	DB	00H
	DB	02H
	DB	0feH
	DB	00H
	DB	00H
	DB	01H
	DB	00H
	DB	01H
	DB	00H
	DB	020H
	DB	020H
	DB	010H
	DB	00H
	DB	00H
	DB	00H
	DB	00H
	DB	00H
	DB	0e8H
	DB	02H
	DB	00H
	DB	00H
	DB	016H
	DB	00H
	DB	00H
	DB	00H
	DB	028H
	DB	00H
	DB	00H
	DB	00H
	DB	020H
	DB	00H
	DB	00H
	DB	00H
	DB	040H
	DB	00H
	DB	00H
	DB	00H
	DB	01H
	DB	00H
	DB	04H
	DB	00H
	DB	00H
	DB	00H
	DB	00H
	DB	00H
	DB	080H
	DB	02H
	DB	00H
	DB	00H
	DB	00H
	DB	00H
	DB	00H
	DB	00H
	DB	00H
	DB	00H
	DB	00H
	DB	00H
	DB	00H
	DB	00H
	DB	00H
	DB	00H
	DB	00H
	DB	00H
	DB	00H
	DB	00H
	DB	00H
	DB	00H
	DB	00H
	DB	00H
	DB	00H
	DB	00H
	DB	080H
	DB	00H
	DB	00H
	DB	080H
	DB	00H
	DB	00H
	DB	00H
	DB	080H
	DB	080H
	DB	00H
	DB	080H
	DB	00H
	DB	00H
	DB	00H
	DB	080H
	DB	00H
	DB	080H
	DB	00H
	DB	080H
	DB	080H
	DB	00H
	DB	00H
	DB	080H
	DB	080H
	DB	080H
	DB	00H
	DB	0c0H
	DB	0c0H
	DB	0c0H
	DB	00H
	DB	00H
	DB	00H
	DB	0ffH
	DB	00H
	DB	00H
	DB	0ffH
	DB	00H
	DB	00H
	DB	00H
	DB	0ffH
	DB	0ffH
	DB	00H
	DB	0ffH
	DB	00H
	DB	00H
	DB	00H
	DB	0ffH
	DB	00H
	DB	0ffH
	DB	00H
	DB	0ffH
	DB	0ffH
	DB	00H
	DB	00H
	DB	0ffH
	DB	0ffH
	DB	0ffH
	DB	00H
	DB	00H
	DB	00H
	DB	00H
	DB	00H
	DB	00H
	DB	00H
	DB	00H
	DB	00H
	DB	00H
	DB	00H
	DB	00H
	DB	00H
	DB	00H
	DB	00H
	DB	00H
	DB	00H
	DB	00H
	DB	00H
	DB	00H
	DB	00H
	DB	00H
	DB	00H
	DB	00H
	DB	00H
	DB	00H
	DB	00H
	DB	00H
	DB	00H
	DB	00H
	DB	00H
	DB	00H
	DB	00H
	DB	00H
	DB	00H
	DB	00H
	DB	00H
	DB	00H
	DB	00H
	DB	00H
	DB	00H
	DB	00H
	DB	00H
	DB	00H
	DB	00H
	DB	00H
	DB	00H
	DB	00H
	DB	00H
	DB	00H
	DB	00H
	DB	00H
	DB	00H
	DB	00H
	DB	00H
	DB	00H
	DB	00H
	DB	00H
	DB	00H
	DB	00H
	DB	00H
	DB	00H
	DB	00H
	DB	00H
	DB	00H
	DB	00H
	DB	00H
	DB	07H
	DB	077H
	DB	077H
	DB	077H
	DB	00H
	DB	00H
	DB	00H
	DB	00H
	DB	00H
	DB	077H
	DB	077H
	DB	077H
	DB	070H
	DB	00H
	DB	00H
	DB	00H
	DB	00H
	DB	00H
	DB	00H
	DB	07H
	DB	070H
	DB	00H
	DB	00H
	DB	00H
	DB	00H
	DB	00H
	DB	00H
	DB	00H
	DB	077H
	DB	00H
	DB	00H
	DB	00H
	DB	087H
	DB	077H
	DB	077H
	DB	070H
	DB	00H
	DB	00H
	DB	00H
	DB	00H
	DB	08H
	DB	077H
	DB	077H
	DB	077H
	DB	00H
	DB	00H
	DB	07H
	DB	070H
	DB	088H
	DB	078H
	DB	078H
	DB	070H
	DB	077H
	DB	00H
	DB	00H
	DB	077H
	DB	08H
	DB	087H
	DB	087H
	DB	087H
	DB	07H
	DB	070H
	DB	08H
	DB	080H
	DB	087H
	DB	087H
	DB	087H
	DB	070H
	DB	088H
	DB	00H
	DB	00H
	DB	088H
	DB	08H
	DB	078H
	DB	078H
	DB	077H
	DB	08H
	DB	080H
	DB	00H
	DB	00H
	DB	088H
	DB	070H
	DB	00H
	DB	00H
	DB	00H
	DB	00H
	DB	00H
	DB	00H
	DB	00H
	DB	00H
	DB	087H
	DB	087H
	DB	00H
	DB	00H
	DB	00H
	DB	00H
	DB	087H
	DB	080H
	DB	08H
	DB	088H
	DB	088H
	DB	088H
	DB	088H
	DB	088H
	DB	088H
	DB	088H
	DB	08H
	DB	077H
	DB	00H
	DB	00H
	DB	00H
	DB	00H
	DB	088H
	DB	070H
	DB	0b0H
	DB	0bbH
	DB	0bbH
	DB	0bbH
	DB	0bbH
	DB	0bbH
	DB	0bbH
	DB	0bbH
	DB	07H
	DB	087H
	DB	00H
	DB	00H
	DB	07H
	DB	070H
	DB	087H
	DB	080H
	DB	0b0H
	DB	0bbH
	DB	0bbH
	DB	0bbH
	DB	0bbH
	DB	0bbH
	DB	0bbH
	DB	0bbH
	DB	0b0H
	DB	077H
	DB	07H
	DB	070H
	DB	08H
	DB	080H
	DB	088H
	DB	070H
	DB	0bbH
	DB	0bH
	DB	0bbH
	DB	0bbH
	DB	0bbH
	DB	0bbH
	DB	0bbH
	DB	0bbH
	DB	0b0H
	DB	07H
	DB	08H
	DB	080H
	DB	00H
	DB	00H
	DB	087H
	DB	080H
	DB	0bbH
	DB	0bH
	DB	0bbH
	DB	0bbH
	DB	0bbH
	DB	0bbH
	DB	0bbH
	DB	0bbH
	DB	0bbH
	DB	07H
	DB	00H
	DB	00H
	DB	00H
	DB	00H
	DB	088H
	DB	070H
	DB	0bbH
	DB	0b0H
	DB	00H
	DB	00H
	DB	00H
	DB	00H
	DB	00H
	DB	00H
	DB	00H
	DB	07H
	DB	00H
	DB	00H
	DB	00H
	DB	00H
	DB	087H
	DB	080H
	DB	0bbH
	DB	0bbH
	DB	0bbH
	DB	0bbH
	DB	0bbH
	DB	0bbH
	DB	0bbH
	DB	0bbH
	DB	08H
	DB	077H
	DB	00H
	DB	00H
	DB	07H
	DB	070H
	DB	088H
	DB	070H
	DB	0bbH
	DB	0bbH
	DB	0bbH
	DB	0bbH
	DB	0bbH
	DB	0bbH
	DB	0bbH
	DB	0bbH
	DB	07H
	DB	087H
	DB	07H
	DB	070H
	DB	08H
	DB	080H
	DB	087H
	DB	080H
	DB	0bbH
	DB	0bbH
	DB	0bbH
	DB	0bbH
	DB	0bbH
	DB	0bbH
	DB	0bbH
	DB	0bbH
	DB	08H
	DB	077H
	DB	08H
	DB	080H
	DB	00H
	DB	00H
	DB	088H
	DB	070H
	DB	0bbH
	DB	0bbH
	DB	0bbH
	DB	0bbH
	DB	0bbH
	DB	0bbH
	DB	0bbH
	DB	0bbH
	DB	07H
	DB	087H
	DB	00H
	DB	00H
	DB	00H
	DB	00H
	DB	087H
	DB	080H
	DB	0bbH
	DB	0bbH
	DB	0b0H
	DB	00H
	DB	00H
	DB	00H
	DB	00H
	DB	00H
	DB	078H
	DB	077H
	DB	00H
	DB	00H
	DB	00H
	DB	00H
	DB	088H
	DB	078H
	DB	0bH
	DB	0bbH
	DB	00H
	DB	00H
	DB	00H
	DB	00H
	DB	08H
	DB	087H
	DB	087H
	DB	087H
	DB	00H
	DB	00H
	DB	07H
	DB	070H
	DB	087H
	DB	087H
	DB	080H
	DB	00H
	DB	077H
	DB	00H
	DB	00H
	DB	077H
	DB	08H
	DB	078H
	DB	078H
	DB	077H
	DB	07H
	DB	070H
	DB	08H
	DB	080H
	DB	088H
	DB	078H
	DB	078H
	DB	070H
	DB	088H
	DB	00H
	DB	00H
	DB	088H
	DB	08H
	DB	087H
	DB	087H
	DB	087H
	DB	08H
	DB	080H
	DB	00H
	DB	00H
	DB	088H
	DB	080H
	DB	087H
	DB	070H
	DB	00H
	DB	00H
	DB	00H
	DB	00H
	DB	08H
	DB	088H
	DB	08H
	DB	077H
	DB	00H
	DB	00H
	DB	00H
	DB	00H
	DB	088H
	DB	00H
	DB	08H
	DB	070H
	DB	00H
	DB	00H
	DB	00H
	DB	00H
	DB	08H
	DB	080H
	DB	00H
	DB	087H
	DB	00H
	DB	00H
	DB	00H
	DB	00H
	DB	00H
	DB	00H
	DB	00H
	DB	00H
	DB	00H
	DB	00H
	DB	00H
	DB	00H
	DB	00H
	DB	00H
	DB	00H
	DB	00H
	DB	00H
	DB	00H
	DB	00H
	DB	00H
	DB	00H
	DB	00H
	DB	00H
	DB	00H
	DB	00H
	DB	00H
	DB	00H
	DB	00H
	DB	00H
	DB	00H
	DB	00H
	DB	00H
	DB	00H
	DB	00H
	DB	00H
	DB	00H
	DB	00H
	DB	00H
	DB	00H
	DB	00H
	DB	00H
	DB	00H
	DB	00H
	DB	00H
	DB	00H
	DB	00H
	DB	00H
	DB	00H
	DB	00H
	DB	00H
	DB	00H
	DB	00H
	DB	00H
	DB	00H
	DB	00H
	DB	00H
	DB	00H
	DB	00H
	DB	00H
	DB	00H
	DB	00H
	DB	00H
	DB	00H
	DB	00H
	DB	00H
	DB	00H
	DB	00H
	DB	00H
	DB	00H
	DB	00H
	DB	00H
	DB	00H
	DB	00H
	DB	00H
	DB	00H
	DB	00H
	DB	00H
	DB	00H
	DB	00H
	DB	00H
	DB	00H
	DB	00H
	DB	00H
	DB	00H
	DB	00H
	DB	00H
	DB	00H
	DB	00H
	DB	00H
	DB	00H
	DB	00H
	DB	00H
	DB	00H
	DB	00H
	DB	00H
	DB	00H
	DB	00H
	DB	00H
	DB	0ffH
	DB	0ffH
	DB	0ffH
	DB	0ffH
	DB	0ffH
	DB	0ffH
	DB	0ffH
	DB	0ffH
	DB	0ffH
	DB	0ffH
	DB	0ffH
	DB	0ffH
	DB	0ffH
	DB	0ffH
	DB	0ffH
	DB	0ffH
	DB	0f8H
	DB	0fH
	DB	0fcH
	DB	07H
	DB	0f0H
	DB	07H
	DB	0f8H
	DB	03H
	DB	00H
	DB	01H
	DB	080H
	DB	00H
	DB	00H
	DB	01H
	DB	080H
	DB	00H
	DB	00H
	DB	01H
	DB	080H
	DB	00H
	DB	080H
	DB	00H
	DB	00H
	DB	01H
	DB	0e0H
	DB	00H
	DB	00H
	DB	07H
	DB	00H
	DB	00H
	DB	00H
	DB	00H
	DB	00H
	DB	00H
	DB	00H
	DB	00H
	DB	00H
	DB	00H
	DB	00H
	DB	020H
	DB	080H
	DB	00H
	DB	00H
	DB	01H
	DB	0e0H
	DB	00H
	DB	00H
	DB	07H
	DB	00H
	DB	00H
	DB	00H
	DB	00H
	DB	00H
	DB	00H
	DB	00H
	DB	00H
	DB	00H
	DB	00H
	DB	00H
	DB	00H
	DB	080H
	DB	00H
	DB	00H
	DB	01H
	DB	0e0H
	DB	00H
	DB	00H
	DB	07H
	DB	00H
	DB	01H
	DB	080H
	DB	00H
	DB	00H
	DB	01H
	DB	080H
	DB	00H
	DB	00H
	DB	01H
	DB	080H
	DB	00H
	DB	080H
	DB	03H
	DB	0c0H
	DB	01H
	DB	0e1H
	DB	0fH
	DB	0f0H
	DB	087H
	DB	0f3H
	DB	09fH
	DB	0f9H
	DB	0cfH
	DB	0ffH
	DB	0ffH
	DB	0ffH
	DB	0ffH
	DB	0ffH
	DB	0ffH
	DB	0ffH
	DB	0ffH
	DB	0ffH
	DB	0ffH
	DB	0ffH
	DB	0ffH
	DB	0ffH
	DB	0ffH
	DB	0ffH
	DB	0ffH
	DB	0ffH
	DB	0ffH
	DB	0ffH
	DB	0ffH
	ORG $+2
?qt_resource_name@@3QBEB DB 00H				; qt_resource_name
	DB	0cH
	DB	02H
	DB	0c7H
	DB	03cH
	DB	05fH
	DB	00H
	DB	04dH
	DB	00H
	DB	04dH
	DB	00H
	DB	046H
	DB	00H
	DB	053H
	DB	00H
	DB	068H
	DB	00H
	DB	061H
	DB	00H
	DB	072H
	DB	00H
	DB	065H
	DB	00H
	DB	02eH
	DB	00H
	DB	069H
	DB	00H
	DB	063H
	DB	00H
	DB	06fH
	ORG $+2
?qt_resource_struct@@3QBEB DB 00H			; qt_resource_struct
	DB	00H
	DB	00H
	DB	00H
	DB	00H
	DB	02H
	DB	00H
	DB	00H
	DB	00H
	DB	01H
	DB	00H
	DB	00H
	DB	00H
	DB	01H
	DB	00H
	DB	00H
	DB	00H
	DB	00H
	DB	00H
	DB	00H
	DB	00H
	DB	00H
	DB	00H
	DB	00H
	DB	00H
	DB	00H
	DB	00H
	DB	00H
	DB	00H
	DB	00H
	DB	00H
	DB	01H
	DB	00H
	DB	00H
	DB	00H
	DB	00H
	DB	00H
	DB	00H
	DB	01H
	DB	016H
	DB	05cH
	DB	0cdH
	DB	078H
	DB	0f0H
CONST	ENDS
PUBLIC	?qInitResources_MMFShare@@YAHXZ			; qInitResources_MMFShare
PUBLIC	?qCleanupResources_MMFShare@@YAHXZ		; qCleanupResources_MMFShare
EXTRN	_atexit:PROC
EXTRN	?qRegisterResourceData@@YA_NHPBE00@Z:PROC	; qRegisterResourceData
EXTRN	?qUnregisterResourceData@@YA_NHPBE00@Z:PROC	; qUnregisterResourceData
EXTRN	@__security_check_cookie@4:PROC
EXTRN	___CxxFrameHandler3:PROC
EXTRN	___security_cookie:DWORD
_BSS	SEGMENT
?dummy@?A0x1bd789ad@@3Uinitializer@1@A DB 01H DUP (?)	; `anonymous namespace'::dummy
_BSS	ENDS
CRT$XCU	SEGMENT
?dummy$initializer$@?A0x1bd789ad@@3P6AXXZA DD FLAT:??__Edummy@?A0x1bd789ad@@YAXXZ ; `anonymous namespace'::dummy$initializer$
CRT$XCU	ENDS
;	COMDAT xdata$x
xdata$x	SEGMENT
__ehfuncinfo$??1initializer@?A0x1bd789ad@@QAE@XZ DD 019930522H
	DD	00H
	DD	00H
	DD	2 DUP(00H)
	DD	2 DUP(00H)
	DD	00H
	DD	05H
xdata$x	ENDS
; Function compile flags: /Odtp
;	COMDAT ??__Fdummy@?A0x1bd789ad@@YAXXZ
text$yd	SEGMENT
??__Fdummy@?A0x1bd789ad@@YAXXZ PROC			; `anonymous namespace'::`dynamic atexit destructor for 'dummy'', COMDAT
	push	ebp
	mov	ebp, esp
	mov	ecx, OFFSET ?dummy@?A0x1bd789ad@@3Uinitializer@1@A ; `anonymous namespace'::dummy
	call	??1initializer@?A0x1bd789ad@@QAE@XZ	; `anonymous namespace'::initializer::~initializer
	pop	ebp
	ret	0
??__Fdummy@?A0x1bd789ad@@YAXXZ ENDP			; `anonymous namespace'::`dynamic atexit destructor for 'dummy''
text$yd	ENDS
; Function compile flags: /Odtp
;	COMDAT ??__Edummy@?A0x1bd789ad@@YAXXZ
text$di	SEGMENT
??__Edummy@?A0x1bd789ad@@YAXXZ PROC			; `anonymous namespace'::`dynamic initializer for 'dummy'', COMDAT
; File C:\Users\lfish\Projects\WinViaCppStudy\17-MMFShare\17-MMFShare\Debug\rcc\qrc_MMFShare.cpp
; Line 128
	push	ebp
	mov	ebp, esp
	mov	ecx, OFFSET ?dummy@?A0x1bd789ad@@3Uinitializer@1@A ; `anonymous namespace'::dummy
	call	??0initializer@?A0x1bd789ad@@QAE@XZ	; `anonymous namespace'::initializer::initializer
	push	OFFSET ??__Fdummy@?A0x1bd789ad@@YAXXZ	; `anonymous namespace'::`dynamic atexit destructor for 'dummy''
	call	_atexit
	add	esp, 4
	pop	ebp
	ret	0
??__Edummy@?A0x1bd789ad@@YAXXZ ENDP			; `anonymous namespace'::`dynamic initializer for 'dummy''
text$di	ENDS
; Function compile flags: /Odtp
;	COMDAT ??1initializer@?A0x1bd789ad@@QAE@XZ
_TEXT	SEGMENT
_this$ = -16						; size = 4
__$EHRec$ = -12						; size = 12
??1initializer@?A0x1bd789ad@@QAE@XZ PROC		; `anonymous namespace'::initializer::~initializer, COMDAT
; _this$ = ecx
; File C:\Users\lfish\Projects\WinViaCppStudy\17-MMFShare\17-MMFShare\Debug\rcc\qrc_MMFShare.cpp
; Line 127
	push	ebp
	mov	ebp, esp
	push	-1
	push	__ehhandler$??1initializer@?A0x1bd789ad@@QAE@XZ
	mov	eax, DWORD PTR fs:0
	push	eax
	push	ecx
	mov	eax, DWORD PTR ___security_cookie
	xor	eax, ebp
	push	eax
	lea	eax, DWORD PTR __$EHRec$[ebp]
	mov	DWORD PTR fs:0, eax
	mov	DWORD PTR _this$[ebp], ecx
	call	?qCleanupResources_MMFShare@@YAHXZ	; qCleanupResources_MMFShare
	mov	ecx, DWORD PTR __$EHRec$[ebp]
	mov	DWORD PTR fs:0, ecx
	pop	ecx
	mov	esp, ebp
	pop	ebp
	ret	0
_TEXT	ENDS
;	COMDAT text$x
text$x	SEGMENT
__ehhandler$??1initializer@?A0x1bd789ad@@QAE@XZ:
	mov	edx, DWORD PTR [esp+8]
	lea	eax, DWORD PTR [edx+12]
	mov	ecx, DWORD PTR [edx-8]
	xor	ecx, eax
	call	@__security_check_cookie@4
	mov	eax, OFFSET __ehfuncinfo$??1initializer@?A0x1bd789ad@@QAE@XZ
	jmp	___CxxFrameHandler3
text$x	ENDS
??1initializer@?A0x1bd789ad@@QAE@XZ ENDP		; `anonymous namespace'::initializer::~initializer
; Function compile flags: /Odtp
;	COMDAT ??0initializer@?A0x1bd789ad@@QAE@XZ
_TEXT	SEGMENT
_this$ = -4						; size = 4
??0initializer@?A0x1bd789ad@@QAE@XZ PROC		; `anonymous namespace'::initializer::initializer, COMDAT
; _this$ = ecx
; File C:\Users\lfish\Projects\WinViaCppStudy\17-MMFShare\17-MMFShare\Debug\rcc\qrc_MMFShare.cpp
; Line 126
	push	ebp
	mov	ebp, esp
	push	ecx
	mov	DWORD PTR _this$[ebp], ecx
	call	?qInitResources_MMFShare@@YAHXZ		; qInitResources_MMFShare
	mov	eax, DWORD PTR _this$[ebp]
	mov	esp, ebp
	pop	ebp
	ret	0
??0initializer@?A0x1bd789ad@@QAE@XZ ENDP		; `anonymous namespace'::initializer::initializer
_TEXT	ENDS
; Function compile flags: /Odtp
_TEXT	SEGMENT
_version$ = -4						; size = 4
?qCleanupResources_MMFShare@@YAHXZ PROC			; qCleanupResources_MMFShare
; File C:\Users\lfish\Projects\WinViaCppStudy\17-MMFShare\17-MMFShare\Debug\rcc\qrc_MMFShare.cpp
; Line 117
	push	ebp
	mov	ebp, esp
	push	ecx
; Line 118
	mov	DWORD PTR _version$[ebp], 3
; Line 119
	push	OFFSET ?qt_resource_data@@3QBEB
	push	OFFSET ?qt_resource_name@@3QBEB
	push	OFFSET ?qt_resource_struct@@3QBEB
	mov	eax, DWORD PTR _version$[ebp]
	push	eax
	call	?qUnregisterResourceData@@YA_NHPBE00@Z	; qUnregisterResourceData
	add	esp, 16					; 00000010H
; Line 121
	mov	eax, 1
; Line 122
	mov	esp, ebp
	pop	ebp
	ret	0
?qCleanupResources_MMFShare@@YAHXZ ENDP			; qCleanupResources_MMFShare
_TEXT	ENDS
; Function compile flags: /Odtp
_TEXT	SEGMENT
_version$ = -4						; size = 4
?qInitResources_MMFShare@@YAHXZ PROC			; qInitResources_MMFShare
; File C:\Users\lfish\Projects\WinViaCppStudy\17-MMFShare\17-MMFShare\Debug\rcc\qrc_MMFShare.cpp
; Line 108
	push	ebp
	mov	ebp, esp
	push	ecx
; Line 109
	mov	DWORD PTR _version$[ebp], 3
; Line 110
	push	OFFSET ?qt_resource_data@@3QBEB
	push	OFFSET ?qt_resource_name@@3QBEB
	push	OFFSET ?qt_resource_struct@@3QBEB
	mov	eax, DWORD PTR _version$[ebp]
	push	eax
	call	?qRegisterResourceData@@YA_NHPBE00@Z	; qRegisterResourceData
	add	esp, 16					; 00000010H
; Line 112
	mov	eax, 1
; Line 113
	mov	esp, ebp
	pop	ebp
	ret	0
?qInitResources_MMFShare@@YAHXZ ENDP			; qInitResources_MMFShare
_TEXT	ENDS
END
