; Listing generated by Microsoft (R) Optimizing Compiler Version 19.23.28105.4 

include listing.inc

INCLUDELIB MSVCRTD
INCLUDELIB OLDNAMES

CONST	SEGMENT
?qt_resource_data@@3QBEB DB 00H				; qt_resource_data
	DB	00H
	DB	02H
	DB	0feH
	DB	00H
	DB	00H
	DB	01H
	DB	00H
	DB	01H
	DB	00H
	DB	020H
	DB	020H
	DB	010H
	DB	00H
	DB	00H
	DB	00H
	DB	00H
	DB	00H
	DB	0e8H
	DB	02H
	DB	00H
	DB	00H
	DB	016H
	DB	00H
	DB	00H
	DB	00H
	DB	028H
	DB	00H
	DB	00H
	DB	00H
	DB	020H
	DB	00H
	DB	00H
	DB	00H
	DB	040H
	DB	00H
	DB	00H
	DB	00H
	DB	01H
	DB	00H
	DB	04H
	DB	00H
	DB	00H
	DB	00H
	DB	00H
	DB	00H
	DB	080H
	DB	02H
	DB	00H
	DB	00H
	DB	00H
	DB	00H
	DB	00H
	DB	00H
	DB	00H
	DB	00H
	DB	00H
	DB	00H
	DB	00H
	DB	00H
	DB	00H
	DB	00H
	DB	00H
	DB	00H
	DB	00H
	DB	00H
	DB	00H
	DB	00H
	DB	00H
	DB	00H
	DB	00H
	DB	00H
	DB	080H
	DB	00H
	DB	00H
	DB	080H
	DB	00H
	DB	00H
	DB	00H
	DB	080H
	DB	080H
	DB	00H
	DB	080H
	DB	00H
	DB	00H
	DB	00H
	DB	080H
	DB	00H
	DB	080H
	DB	00H
	DB	080H
	DB	080H
	DB	00H
	DB	00H
	DB	0c0H
	DB	0c0H
	DB	0c0H
	DB	00H
	DB	080H
	DB	080H
	DB	080H
	DB	00H
	DB	00H
	DB	00H
	DB	0ffH
	DB	00H
	DB	00H
	DB	0ffH
	DB	00H
	DB	00H
	DB	00H
	DB	0ffH
	DB	0ffH
	DB	00H
	DB	0ffH
	DB	00H
	DB	00H
	DB	00H
	DB	0ffH
	DB	00H
	DB	0ffH
	DB	00H
	DB	0ffH
	DB	0ffH
	DB	00H
	DB	00H
	DB	0ffH
	DB	0ffH
	DB	0ffH
	DB	00H
	DB	00H
	DB	00H
	DB	00H
	DB	00H
	DB	00H
	DB	00H
	DB	00H
	DB	00H
	DB	00H
	DB	00H
	DB	00H
	DB	00H
	DB	00H
	DB	00H
	DB	00H
	DB	00H
	DB	00H
	DB	00H
	DB	00H
	DB	00H
	DB	00H
	DB	00H
	DB	00H
	DB	00H
	DB	00H
	DB	00H
	DB	00H
	DB	00H
	DB	00H
	DB	00H
	DB	00H
	DB	00H
	DB	00H
	DB	00H
	DB	00H
	DB	00H
	DB	00H
	DB	00H
	DB	00H
	DB	00H
	DB	00H
	DB	00H
	DB	00H
	DB	00H
	DB	0aH
	DB	00H
	DB	00H
	DB	00H
	DB	00H
	DB	00H
	DB	00H
	DB	00H
	DB	00H
	DB	00H
	DB	00H
	DB	00H
	DB	00H
	DB	00H
	DB	00H
	DB	00H
	DB	0aH
	DB	00H
	DB	00H
	DB	00H
	DB	00H
	DB	00H
	DB	00H
	DB	00H
	DB	00H
	DB	00H
	DB	00H
	DB	00H
	DB	00H
	DB	00H
	DB	00H
	DB	00H
	DB	0aH
	DB	00H
	DB	00H
	DB	00H
	DB	00H
	DB	00H
	DB	00H
	DB	00H
	DB	00H
	DB	00H
	DB	00H
	DB	00H
	DB	00H
	DB	00H
	DB	00H
	DB	00H
	DB	00H
	DB	00H
	DB	00H
	DB	00H
	DB	00H
	DB	00H
	DB	00H
	DB	00H
	DB	00H
	DB	00H
	DB	00H
	DB	00H
	DB	00H
	DB	00H
	DB	00H
	DB	00H
	DB	08H
	DB	00H
	DB	00H
	DB	00H
	DB	00H
	DB	00H
	DB	00H
	DB	00H
	DB	00H
	DB	00H
	DB	00H
	DB	00H
	DB	00H
	DB	00H
	DB	00H
	DB	00H
	DB	080H
	DB	00H
	DB	00H
	DB	00H
	DB	00H
	DB	00H
	DB	00H
	DB	00H
	DB	00H
	DB	00H
	DB	00H
	DB	00H
	DB	00H
	DB	00H
	DB	00H
	DB	08H
	DB	00H
	DB	00H
	DB	00H
	DB	00H
	DB	00H
	DB	00H
	DB	00H
	DB	00H
	DB	00H
	DB	00H
	DB	00H
	DB	00H
	DB	00H
	DB	00H
	DB	00H
	DB	080H
	DB	00H
	DB	00H
	DB	00H
	DB	00H
	DB	00H
	DB	00H
	DB	00H
	DB	00H
	DB	00H
	DB	00H
	DB	00H
	DB	00H
	DB	00H
	DB	00H
	DB	00H
	DB	00H
	DB	00H
	DB	00H
	DB	00H
	DB	00H
	DB	00H
	DB	00H
	DB	00H
	DB	00H
	DB	00H
	DB	00H
	DB	00H
	DB	00H
	DB	00H
	DB	00H
	DB	070H
	DB	00H
	DB	00H
	DB	00H
	DB	00H
	DB	00H
	DB	00H
	DB	00H
	DB	00H
	DB	00H
	DB	00H
	DB	00H
	DB	00H
	DB	00H
	DB	022H
	DB	07H
	DB	00H
	DB	00H
	DB	00H
	DB	00H
	DB	00H
	DB	00H
	DB	00H
	DB	00H
	DB	00H
	DB	00H
	DB	00H
	DB	00H
	DB	00H
	DB	02H
	DB	0aH
	DB	0a0H
	DB	00H
	DB	00H
	DB	00H
	DB	00H
	DB	00H
	DB	00H
	DB	00H
	DB	00H
	DB	00H
	DB	00H
	DB	00H
	DB	00H
	DB	00H
	DB	02aH
	DB	0a0H
	DB	0aaH
	DB	00H
	DB	00H
	DB	00H
	DB	00H
	DB	00H
	DB	00H
	DB	00H
	DB	00H
	DB	00H
	DB	00H
	DB	00H
	DB	00H
	DB	0aH
	DB	0aH
	DB	0aaH
	DB	0aaH
	DB	00H
	DB	00H
	DB	00H
	DB	00H
	DB	00H
	DB	00H
	DB	00H
	DB	00H
	DB	00H
	DB	00H
	DB	00H
	DB	00H
	DB	02aH
	DB	0a0H
	DB	0aaH
	DB	0a0H
	DB	00H
	DB	00H
	DB	00H
	DB	00H
	DB	00H
	DB	00H
	DB	00H
	DB	00H
	DB	00H
	DB	00H
	DB	00H
	DB	00H
	DB	0aH
	DB	0aaH
	DB	0aaH
	DB	00H
	DB	00H
	DB	00H
	DB	00H
	DB	00H
	DB	00H
	DB	00H
	DB	00H
	DB	00H
	DB	00H
	DB	00H
	DB	00H
	DB	0f0H
	DB	080H
	DB	0aaH
	DB	0a0H
	DB	00H
	DB	00H
	DB	00H
	DB	00H
	DB	00H
	DB	00H
	DB	00H
	DB	00H
	DB	00H
	DB	00H
	DB	00H
	DB	0fH
	DB	0f0H
	DB	08H
	DB	0aH
	DB	00H
	DB	00H
	DB	00H
	DB	00H
	DB	00H
	DB	00H
	DB	00H
	DB	00H
	DB	00H
	DB	00H
	DB	00H
	DB	0e0H
	DB	0fH
	DB	00H
	DB	00H
	DB	00H
	DB	00H
	DB	00H
	DB	00H
	DB	00H
	DB	00H
	DB	00H
	DB	00H
	DB	00H
	DB	00H
	DB	00H
	DB	00H
	DB	0eH
	DB	0e0H
	DB	00H
	DB	0ffH
	DB	00H
	DB	00H
	DB	00H
	DB	00H
	DB	00H
	DB	00H
	DB	00H
	DB	00H
	DB	00H
	DB	00H
	DB	00H
	DB	00H
	DB	0eH
	DB	0eH
	DB	0fH
	DB	0f0H
	DB	00H
	DB	00H
	DB	00H
	DB	00H
	DB	00H
	DB	00H
	DB	00H
	DB	00H
	DB	00H
	DB	00H
	DB	00H
	DB	00H
	DB	00H
	DB	060H
	DB	0e0H
	DB	00H
	DB	00H
	DB	00H
	DB	00H
	DB	00H
	DB	00H
	DB	00H
	DB	00H
	DB	00H
	DB	00H
	DB	00H
	DB	00H
	DB	00H
	DB	06H
	DB	0eH
	DB	0e0H
	DB	00H
	DB	00H
	DB	00H
	DB	00H
	DB	00H
	DB	00H
	DB	00H
	DB	00H
	DB	00H
	DB	00H
	DB	00H
	DB	00H
	DB	00H
	DB	060H
	DB	00H
	DB	0eH
	DB	00H
	DB	00H
	DB	00H
	DB	00H
	DB	00H
	DB	00H
	DB	00H
	DB	00H
	DB	00H
	DB	00H
	DB	00H
	DB	00H
	DB	06H
	DB	00H
	DB	00H
	DB	00H
	DB	00H
	DB	00H
	DB	00H
	DB	00H
	DB	00H
	DB	00H
	DB	00H
	DB	00H
	DB	00H
	DB	00H
	DB	0eH
	DB	060H
	DB	060H
	DB	00H
	DB	00H
	DB	00H
	DB	00H
	DB	00H
	DB	00H
	DB	00H
	DB	00H
	DB	00H
	DB	00H
	DB	00H
	DB	00H
	DB	00H
	DB	0eH
	DB	0e6H
	DB	00H
	DB	00H
	DB	00H
	DB	00H
	DB	00H
	DB	00H
	DB	00H
	DB	00H
	DB	00H
	DB	00H
	DB	00H
	DB	00H
	DB	00H
	DB	00H
	DB	00H
	DB	0eeH
	DB	060H
	DB	00H
	DB	00H
	DB	00H
	DB	00H
	DB	00H
	DB	00H
	DB	00H
	DB	00H
	DB	00H
	DB	00H
	DB	00H
	DB	00H
	DB	00H
	DB	00H
	DB	0eH
	DB	0e0H
	DB	00H
	DB	00H
	DB	00H
	DB	00H
	DB	00H
	DB	00H
	DB	00H
	DB	00H
	DB	00H
	DB	00H
	DB	00H
	DB	00H
	DB	00H
	DB	00H
	DB	00H
	DB	00H
	DB	00H
	DB	00H
	DB	00H
	DB	00H
	DB	00H
	DB	00H
	DB	00H
	DB	00H
	DB	00H
	DB	00H
	DB	00H
	DB	00H
	DB	00H
	DB	0ffH
	DB	0ffH
	DB	0ffH
	DB	0ffH
	DB	0ffH
	DB	0ffH
	DB	0ffH
	DB	03fH
	DB	0ffH
	DB	0ffH
	DB	0ffH
	DB	01fH
	DB	0ffH
	DB	0ffH
	DB	0ffH
	DB	01fH
	DB	0ffH
	DB	0ffH
	DB	0ffH
	DB	01fH
	DB	0ffH
	DB	0ffH
	DB	0ffH
	DB	0bfH
	DB	0ffH
	DB	0ffH
	DB	0ffH
	DB	03fH
	DB	0ffH
	DB	0ffH
	DB	0feH
	DB	07fH
	DB	0ffH
	DB	0ffH
	DB	0fcH
	DB	0ffH
	DB	0ffH
	DB	0ffH
	DB	0f9H
	DB	0ffH
	DB	0ffH
	DB	0ffH
	DB	0e3H
	DB	0ffH
	DB	0ffH
	DB	0ffH
	DB	03H
	DB	0ffH
	DB	0ffH
	DB	0feH
	DB	07H
	DB	0ffH
	DB	0ffH
	DB	0fcH
	DB	07H
	DB	0ffH
	DB	0ffH
	DB	0f8H
	DB	07H
	DB	0ffH
	DB	0ffH
	DB	0f0H
	DB	07H
	DB	0ffH
	DB	0ffH
	DB	0e0H
	DB	0fH
	DB	0ffH
	DB	0ffH
	DB	0c0H
	DB	01fH
	DB	0ffH
	DB	0ffH
	DB	080H
	DB	03fH
	DB	0ffH
	DB	0f9H
	DB	00H
	DB	07fH
	DB	0ffH
	DB	0f8H
	DB	00H
	DB	0ffH
	DB	0ffH
	DB	0fcH
	DB	01H
	DB	0ffH
	DB	0ffH
	DB	0fcH
	DB	03H
	DB	0ffH
	DB	0ffH
	DB	0feH
	DB	07H
	DB	0ffH
	DB	0ffH
	DB	0fcH
	DB	0fH
	DB	0ffH
	DB	0ffH
	DB	0f8H
	DB	087H
	DB	0ffH
	DB	0ffH
	DB	091H
	DB	0e7H
	DB	0ffH
	DB	0ffH
	DB	03H
	DB	0ffH
	DB	0ffH
	DB	0ffH
	DB	07H
	DB	0ffH
	DB	0ffH
	DB	0ffH
	DB	083H
	DB	0ffH
	DB	0ffH
	DB	0ffH
	DB	0c3H
	DB	0ffH
	DB	0ffH
	DB	0ffH
	DB	0e3H
	DB	0ffH
	DB	0ffH
	DB	0ffH
	ORG $+6
?qt_resource_name@@3QBEB DB 00H				; qt_resource_name
	DB	0aH
	DB	02H
	DB	0ffH
	DB	046H
	DB	07fH
	DB	00H
	DB	049H
	DB	00H
	DB	06eH
	DB	00H
	DB	06aH
	DB	00H
	DB	04cH
	DB	00H
	DB	069H
	DB	00H
	DB	062H
	DB	00H
	DB	02eH
	DB	00H
	DB	069H
	DB	00H
	DB	063H
	DB	00H
	DB	06fH
	ORG $+6
?qt_resource_struct@@3QBEB DB 00H			; qt_resource_struct
	DB	00H
	DB	00H
	DB	00H
	DB	00H
	DB	02H
	DB	00H
	DB	00H
	DB	00H
	DB	01H
	DB	00H
	DB	00H
	DB	00H
	DB	01H
	DB	00H
	DB	00H
	DB	00H
	DB	00H
	DB	00H
	DB	00H
	DB	00H
	DB	00H
	DB	00H
	DB	00H
	DB	00H
	DB	00H
	DB	00H
	DB	00H
	DB	00H
	DB	00H
	DB	00H
	DB	01H
	DB	00H
	DB	00H
	DB	00H
	DB	00H
	DB	00H
	DB	00H
	DB	01H
	DB	016H
	DB	05cH
	DB	0cdH
	DB	080H
	DB	0c0H
CONST	ENDS
PUBLIC	?qInitResources_InjLibx64@@YAHXZ		; qInitResources_InjLibx64
PUBLIC	?qCleanupResources_InjLibx64@@YAHXZ		; qCleanupResources_InjLibx64
EXTRN	atexit:PROC
EXTRN	?qRegisterResourceData@@YA_NHPEBE00@Z:PROC	; qRegisterResourceData
EXTRN	?qUnregisterResourceData@@YA_NHPEBE00@Z:PROC	; qUnregisterResourceData
EXTRN	__CxxFrameHandler4:PROC
_BSS	SEGMENT
?dummy@?A0x793223b9@@3Uinitializer@1@A DB 01H DUP (?)	; `anonymous namespace'::dummy
_BSS	ENDS
pdata	SEGMENT
$pdata$?qInitResources_InjLibx64@@YAHXZ DD imagerel $LN3
	DD	imagerel $LN3+52
	DD	imagerel $unwind$?qInitResources_InjLibx64@@YAHXZ
$pdata$?qCleanupResources_InjLibx64@@YAHXZ DD imagerel $LN3
	DD	imagerel $LN3+52
	DD	imagerel $unwind$?qCleanupResources_InjLibx64@@YAHXZ
pdata	ENDS
;	COMDAT pdata
pdata	SEGMENT
$pdata$??0initializer@?A0x793223b9@@QEAA@XZ DD imagerel ??0initializer@?A0x793223b9@@QEAA@XZ
	DD	imagerel ??0initializer@?A0x793223b9@@QEAA@XZ+24
	DD	imagerel $unwind$??0initializer@?A0x793223b9@@QEAA@XZ
pdata	ENDS
;	COMDAT pdata
pdata	SEGMENT
$pdata$??1initializer@?A0x793223b9@@QEAA@XZ DD imagerel ??1initializer@?A0x793223b9@@QEAA@XZ
	DD	imagerel ??1initializer@?A0x793223b9@@QEAA@XZ+20
	DD	imagerel $unwind$??1initializer@?A0x793223b9@@QEAA@XZ
pdata	ENDS
;	COMDAT pdata
pdata	SEGMENT
$pdata$??__Edummy@?A0x793223b9@@YAXXZ DD imagerel ??__Edummy@?A0x793223b9@@YAXXZ
	DD	imagerel ??__Edummy@?A0x793223b9@@YAXXZ+33
	DD	imagerel $unwind$??__Edummy@?A0x793223b9@@YAXXZ
pdata	ENDS
;	COMDAT pdata
pdata	SEGMENT
$pdata$??__Fdummy@?A0x793223b9@@YAXXZ DD imagerel ??__Fdummy@?A0x793223b9@@YAXXZ
	DD	imagerel ??__Fdummy@?A0x793223b9@@YAXXZ+21
	DD	imagerel $unwind$??__Fdummy@?A0x793223b9@@YAXXZ
pdata	ENDS
CRT$XCU	SEGMENT
?dummy$initializer$@?A0x793223b9@@3P6AXXZEA DQ FLAT:??__Edummy@?A0x793223b9@@YAXXZ ; `anonymous namespace'::dummy$initializer$
CRT$XCU	ENDS
;	COMDAT xdata
xdata	SEGMENT
$unwind$??__Fdummy@?A0x793223b9@@YAXXZ DD 010401H
	DD	04204H
xdata	ENDS
;	COMDAT xdata
xdata	SEGMENT
$unwind$??__Edummy@?A0x793223b9@@YAXXZ DD 010401H
	DD	04204H
xdata	ENDS
;	COMDAT xdata
xdata	SEGMENT
$ip2state$??1initializer@?A0x793223b9@@QEAA@XZ DB 02H
	DB	00H
	DB	00H
xdata	ENDS
;	COMDAT xdata
xdata	SEGMENT
$cppxdata$??1initializer@?A0x793223b9@@QEAA@XZ DB 060H
	DD	imagerel $ip2state$??1initializer@?A0x793223b9@@QEAA@XZ
xdata	ENDS
;	COMDAT xdata
xdata	SEGMENT
$unwind$??1initializer@?A0x793223b9@@QEAA@XZ DD 010919H
	DD	04209H
	DD	imagerel __CxxFrameHandler4
	DD	imagerel $cppxdata$??1initializer@?A0x793223b9@@QEAA@XZ
xdata	ENDS
;	COMDAT xdata
xdata	SEGMENT
$unwind$??0initializer@?A0x793223b9@@QEAA@XZ DD 010901H
	DD	04209H
xdata	ENDS
xdata	SEGMENT
$unwind$?qInitResources_InjLibx64@@YAHXZ DD 010401H
	DD	06204H
$unwind$?qCleanupResources_InjLibx64@@YAHXZ DD 010401H
	DD	06204H
xdata	ENDS
; Function compile flags: /Odtp
;	COMDAT ??__Fdummy@?A0x793223b9@@YAXXZ
text$yd	SEGMENT
??__Fdummy@?A0x793223b9@@YAXXZ PROC			; `anonymous namespace'::`dynamic atexit destructor for 'dummy'', COMDAT
	sub	rsp, 40					; 00000028H
	lea	rcx, OFFSET FLAT:?dummy@?A0x793223b9@@3Uinitializer@1@A ; `anonymous namespace'::dummy
	call	??1initializer@?A0x793223b9@@QEAA@XZ	; `anonymous namespace'::initializer::~initializer
	add	rsp, 40					; 00000028H
	ret	0
??__Fdummy@?A0x793223b9@@YAXXZ ENDP			; `anonymous namespace'::`dynamic atexit destructor for 'dummy''
text$yd	ENDS
; Function compile flags: /Odtp
;	COMDAT ??__Edummy@?A0x793223b9@@YAXXZ
text$di	SEGMENT
??__Edummy@?A0x793223b9@@YAXXZ PROC			; `anonymous namespace'::`dynamic initializer for 'dummy'', COMDAT
; File C:\Users\lfish\Projects\WinViaCppStudy\22-InjLib-x64\22-InjLib-x64\x64\Debug\rcc\qrc_InjLibx64.cpp
; Line 128
	sub	rsp, 40					; 00000028H
	lea	rcx, OFFSET FLAT:?dummy@?A0x793223b9@@3Uinitializer@1@A ; `anonymous namespace'::dummy
	call	??0initializer@?A0x793223b9@@QEAA@XZ	; `anonymous namespace'::initializer::initializer
	lea	rcx, OFFSET FLAT:??__Fdummy@?A0x793223b9@@YAXXZ ; `anonymous namespace'::`dynamic atexit destructor for 'dummy''
	call	atexit
	add	rsp, 40					; 00000028H
	ret	0
??__Edummy@?A0x793223b9@@YAXXZ ENDP			; `anonymous namespace'::`dynamic initializer for 'dummy''
text$di	ENDS
; Function compile flags: /Odtp
;	COMDAT ??1initializer@?A0x793223b9@@QEAA@XZ
_TEXT	SEGMENT
this$ = 48
??1initializer@?A0x793223b9@@QEAA@XZ PROC		; `anonymous namespace'::initializer::~initializer, COMDAT
; File C:\Users\lfish\Projects\WinViaCppStudy\22-InjLib-x64\22-InjLib-x64\x64\Debug\rcc\qrc_InjLibx64.cpp
; Line 127
	mov	QWORD PTR [rsp+8], rcx
	sub	rsp, 40					; 00000028H
	call	?qCleanupResources_InjLibx64@@YAHXZ	; qCleanupResources_InjLibx64
	npad	1
	add	rsp, 40					; 00000028H
	ret	0
??1initializer@?A0x793223b9@@QEAA@XZ ENDP		; `anonymous namespace'::initializer::~initializer
_TEXT	ENDS
; Function compile flags: /Odtp
;	COMDAT ??0initializer@?A0x793223b9@@QEAA@XZ
_TEXT	SEGMENT
this$ = 48
??0initializer@?A0x793223b9@@QEAA@XZ PROC		; `anonymous namespace'::initializer::initializer, COMDAT
; File C:\Users\lfish\Projects\WinViaCppStudy\22-InjLib-x64\22-InjLib-x64\x64\Debug\rcc\qrc_InjLibx64.cpp
; Line 126
	mov	QWORD PTR [rsp+8], rcx
	sub	rsp, 40					; 00000028H
	call	?qInitResources_InjLibx64@@YAHXZ	; qInitResources_InjLibx64
	mov	rax, QWORD PTR this$[rsp]
	add	rsp, 40					; 00000028H
	ret	0
??0initializer@?A0x793223b9@@QEAA@XZ ENDP		; `anonymous namespace'::initializer::initializer
_TEXT	ENDS
; Function compile flags: /Odtp
_TEXT	SEGMENT
version$ = 32
?qCleanupResources_InjLibx64@@YAHXZ PROC		; qCleanupResources_InjLibx64
; File C:\Users\lfish\Projects\WinViaCppStudy\22-InjLib-x64\22-InjLib-x64\x64\Debug\rcc\qrc_InjLibx64.cpp
; Line 117
$LN3:
	sub	rsp, 56					; 00000038H
; Line 118
	mov	DWORD PTR version$[rsp], 3
; Line 119
	lea	r9, OFFSET FLAT:?qt_resource_data@@3QBEB
	lea	r8, OFFSET FLAT:?qt_resource_name@@3QBEB
	lea	rdx, OFFSET FLAT:?qt_resource_struct@@3QBEB
	mov	ecx, DWORD PTR version$[rsp]
	call	?qUnregisterResourceData@@YA_NHPEBE00@Z	; qUnregisterResourceData
; Line 121
	mov	eax, 1
; Line 122
	add	rsp, 56					; 00000038H
	ret	0
?qCleanupResources_InjLibx64@@YAHXZ ENDP		; qCleanupResources_InjLibx64
_TEXT	ENDS
; Function compile flags: /Odtp
_TEXT	SEGMENT
version$ = 32
?qInitResources_InjLibx64@@YAHXZ PROC			; qInitResources_InjLibx64
; File C:\Users\lfish\Projects\WinViaCppStudy\22-InjLib-x64\22-InjLib-x64\x64\Debug\rcc\qrc_InjLibx64.cpp
; Line 108
$LN3:
	sub	rsp, 56					; 00000038H
; Line 109
	mov	DWORD PTR version$[rsp], 3
; Line 110
	lea	r9, OFFSET FLAT:?qt_resource_data@@3QBEB
	lea	r8, OFFSET FLAT:?qt_resource_name@@3QBEB
	lea	rdx, OFFSET FLAT:?qt_resource_struct@@3QBEB
	mov	ecx, DWORD PTR version$[rsp]
	call	?qRegisterResourceData@@YA_NHPEBE00@Z	; qRegisterResourceData
; Line 112
	mov	eax, 1
; Line 113
	add	rsp, 56					; 00000038H
	ret	0
?qInitResources_InjLibx64@@YAHXZ ENDP			; qInitResources_InjLibx64
_TEXT	ENDS
END
